	.file	"lexer.cpp"
	.intel_syntax noprefix
	.text
.Ltext0:
	.globl	_Z7strndupPKcm
	.type	_Z7strndupPKcm, @function
_Z7strndupPKcm:
.LFB2281:
	.file 1 "src/lexer.cpp"
	.loc 1 8 0
	.cfi_startproc
.LVL0:
	push	rbp
	.cfi_def_cfa_offset 16
	.cfi_offset 6, -16
	push	rbx
	.cfi_def_cfa_offset 24
	.cfi_offset 3, -24
	sub	rsp, 8
	.cfi_def_cfa_offset 32
	mov	rbp, rdi
	mov	rbx, rsi
	.loc 1 11 0
	lea	rdi, 1[rsi]
.LVL1:
	call	malloc@PLT
.LVL2:
	.loc 1 12 0
	test	rax, rax
	je	.L1
	.loc 1 13 0
	mov	ecx, 0
.L4:
.LVL3:
	.loc 1 13 0 is_stmt 0 discriminator 4
	movsx	rdx, ecx
	cmp	rdx, rbx
	jnb	.L3
	.loc 1 13 0 discriminator 2
	movzx	esi, BYTE PTR 0[rbp+rdx]
	test	sil, sil
	je	.L3
	.loc 1 13 0 discriminator 3
	mov	BYTE PTR [rax+rdx], sil
	add	ecx, 1
.LVL4:
	jmp	.L4
.L3:
	.loc 1 14 0 is_stmt 1
	mov	BYTE PTR [rax+rdx], 0
.LVL5:
.L1:
	.loc 1 18 0
	add	rsp, 8
	.cfi_def_cfa_offset 24
	pop	rbx
	.cfi_def_cfa_offset 16
.LVL6:
	pop	rbp
	.cfi_def_cfa_offset 8
.LVL7:
	ret
	.cfi_endproc
.LFE2281:
	.size	_Z7strndupPKcm, .-_Z7strndupPKcm
	.section	.text._ZNSt8__detail16_Hashtable_allocISaINS_10_Hash_nodeISt4pairIKmS2_IiPFiR10CallParamsEEELb0EEEEE18_M_deallocate_nodeEPSA_,"axG",@progbits,_ZNSt8__detail16_Hashtable_allocISaINS_10_Hash_nodeISt4pairIKmS2_IiPFiR10CallParamsEEELb0EEEEE18_M_deallocate_nodeEPSA_,comdat
	.align 2
	.weak	_ZNSt8__detail16_Hashtable_allocISaINS_10_Hash_nodeISt4pairIKmS2_IiPFiR10CallParamsEEELb0EEEEE18_M_deallocate_nodeEPSA_
	.type	_ZNSt8__detail16_Hashtable_allocISaINS_10_Hash_nodeISt4pairIKmS2_IiPFiR10CallParamsEEELb0EEEEE18_M_deallocate_nodeEPSA_, @function
_ZNSt8__detail16_Hashtable_allocISaINS_10_Hash_nodeISt4pairIKmS2_IiPFiR10CallParamsEEELb0EEEEE18_M_deallocate_nodeEPSA_:
.LFB2727:
	.file 2 "/usr/include/c++/7/bits/hashtable_policy.h"
	.loc 2 2079 0
	.cfi_startproc
.LVL8:
	sub	rsp, 8
	.cfi_def_cfa_offset 16
.LVL9:
.LBB607:
.LBB608:
.LBB609:
	.file 3 "/usr/include/c++/7/ext/new_allocator.h"
	.loc 3 125 0
	mov	rdi, rsi
.LVL10:
	call	_ZdlPv@PLT
.LVL11:
.LBE609:
.LBE608:
.LBE607:
	.loc 2 2087 0
	add	rsp, 8
	.cfi_def_cfa_offset 8
	ret
	.cfi_endproc
.LFE2727:
	.size	_ZNSt8__detail16_Hashtable_allocISaINS_10_Hash_nodeISt4pairIKmS2_IiPFiR10CallParamsEEELb0EEEEE18_M_deallocate_nodeEPSA_, .-_ZNSt8__detail16_Hashtable_allocISaINS_10_Hash_nodeISt4pairIKmS2_IiPFiR10CallParamsEEELb0EEEEE18_M_deallocate_nodeEPSA_
	.section	.text._ZNSt8__detail16_Hashtable_allocISaINS_10_Hash_nodeISt4pairIKmS2_IiPFiR10CallParamsEEELb0EEEEE19_M_deallocate_nodesEPSA_,"axG",@progbits,_ZNSt8__detail16_Hashtable_allocISaINS_10_Hash_nodeISt4pairIKmS2_IiPFiR10CallParamsEEELb0EEEEE19_M_deallocate_nodesEPSA_,comdat
	.align 2
	.weak	_ZNSt8__detail16_Hashtable_allocISaINS_10_Hash_nodeISt4pairIKmS2_IiPFiR10CallParamsEEELb0EEEEE19_M_deallocate_nodesEPSA_
	.type	_ZNSt8__detail16_Hashtable_allocISaINS_10_Hash_nodeISt4pairIKmS2_IiPFiR10CallParamsEEELb0EEEEE19_M_deallocate_nodesEPSA_, @function
_ZNSt8__detail16_Hashtable_allocISaINS_10_Hash_nodeISt4pairIKmS2_IiPFiR10CallParamsEEELb0EEEEE19_M_deallocate_nodesEPSA_:
.LFB2672:
	.loc 2 2091 0
	.cfi_startproc
.LVL12:
	push	rbp
	.cfi_def_cfa_offset 16
	.cfi_offset 6, -16
	push	rbx
	.cfi_def_cfa_offset 24
	.cfi_offset 3, -24
	sub	rsp, 8
	.cfi_def_cfa_offset 32
	mov	rbp, rdi
.LVL13:
.L10:
	.loc 2 2093 0
	test	rsi, rsi
	je	.L8
.LVL14:
.LBB610:
.LBB611:
.LBB612:
	.loc 2 298 0
	mov	rbx, QWORD PTR [rsi]
.LVL15:
.LBE612:
.LBE611:
	.loc 2 2097 0
	mov	rdi, rbp
	call	_ZNSt8__detail16_Hashtable_allocISaINS_10_Hash_nodeISt4pairIKmS2_IiPFiR10CallParamsEEELb0EEEEE18_M_deallocate_nodeEPSA_
.LVL16:
	.loc 2 2096 0
	mov	rsi, rbx
.LBE610:
	.loc 2 2093 0
	jmp	.L10
.LVL17:
.L8:
	.loc 2 2099 0
	add	rsp, 8
	.cfi_def_cfa_offset 24
	pop	rbx
	.cfi_def_cfa_offset 16
	pop	rbp
	.cfi_def_cfa_offset 8
.LVL18:
	ret
	.cfi_endproc
.LFE2672:
	.size	_ZNSt8__detail16_Hashtable_allocISaINS_10_Hash_nodeISt4pairIKmS2_IiPFiR10CallParamsEEELb0EEEEE19_M_deallocate_nodesEPSA_, .-_ZNSt8__detail16_Hashtable_allocISaINS_10_Hash_nodeISt4pairIKmS2_IiPFiR10CallParamsEEELb0EEEEE19_M_deallocate_nodesEPSA_
	.section	.text._ZNSt10_HashtableImSt4pairIKmS0_IiPFiR10CallParamsEEESaIS7_ENSt8__detail10_Select1stESt8equal_toImESt4hashImENS9_18_Mod_range_hashingENS9_20_Default_ranged_hashENS9_20_Prime_rehash_policyENS9_17_Hashtable_traitsILb0ELb0ELb1EEEE5clearEv,"axG",@progbits,_ZNSt10_HashtableImSt4pairIKmS0_IiPFiR10CallParamsEEESaIS7_ENSt8__detail10_Select1stESt8equal_toImESt4hashImENS9_18_Mod_range_hashingENS9_20_Default_ranged_hashENS9_20_Prime_rehash_policyENS9_17_Hashtable_traitsILb0ELb0ELb1EEEE5clearEv,comdat
	.align 2
	.weak	_ZNSt10_HashtableImSt4pairIKmS0_IiPFiR10CallParamsEEESaIS7_ENSt8__detail10_Select1stESt8equal_toImESt4hashImENS9_18_Mod_range_hashingENS9_20_Default_ranged_hashENS9_20_Prime_rehash_policyENS9_17_Hashtable_traitsILb0ELb0ELb1EEEE5clearEv
	.type	_ZNSt10_HashtableImSt4pairIKmS0_IiPFiR10CallParamsEEESaIS7_ENSt8__detail10_Select1stESt8equal_toImESt4hashImENS9_18_Mod_range_hashingENS9_20_Default_ranged_hashENS9_20_Prime_rehash_policyENS9_17_Hashtable_traitsILb0ELb0ELb1EEEE5clearEv, @function
_ZNSt10_HashtableImSt4pairIKmS0_IiPFiR10CallParamsEEESaIS7_ENSt8__detail10_Select1stESt8equal_toImESt4hashImENS9_18_Mod_range_hashingENS9_20_Default_ranged_hashENS9_20_Prime_rehash_policyENS9_17_Hashtable_traitsILb0ELb0ELb1EEEE5clearEv:
.LFB2622:
	.file 4 "/usr/include/c++/7/bits/hashtable.h"
	.loc 4 2028 0
	.cfi_startproc
.LVL19:
	push	rbx
	.cfi_def_cfa_offset 16
	.cfi_offset 3, -16
	mov	rbx, rdi
.LVL20:
.LBB613:
.LBB614:
	.loc 4 377 0
	mov	rsi, QWORD PTR 16[rdi]
.LVL21:
.LBE614:
.LBE613:
	.loc 4 2032 0
	call	_ZNSt8__detail16_Hashtable_allocISaINS_10_Hash_nodeISt4pairIKmS2_IiPFiR10CallParamsEEELb0EEEEE19_M_deallocate_nodesEPSA_
.LVL22:
	.loc 4 2033 0
	mov	rdi, QWORD PTR [rbx]
	mov	rax, QWORD PTR 8[rbx]
	lea	rdx, 0[0+rax*8]
	mov	esi, 0
	call	memset@PLT
.LVL23:
	.loc 4 2034 0
	mov	QWORD PTR 24[rbx], 0
	.loc 4 2035 0
	mov	QWORD PTR 16[rbx], 0
	.loc 4 2036 0
	pop	rbx
	.cfi_def_cfa_offset 8
.LVL24:
	ret
	.cfi_endproc
.LFE2622:
	.size	_ZNSt10_HashtableImSt4pairIKmS0_IiPFiR10CallParamsEEESaIS7_ENSt8__detail10_Select1stESt8equal_toImESt4hashImENS9_18_Mod_range_hashingENS9_20_Default_ranged_hashENS9_20_Prime_rehash_policyENS9_17_Hashtable_traitsILb0ELb0ELb1EEEE5clearEv, .-_ZNSt10_HashtableImSt4pairIKmS0_IiPFiR10CallParamsEEESaIS7_ENSt8__detail10_Select1stESt8equal_toImESt4hashImENS9_18_Mod_range_hashingENS9_20_Default_ranged_hashENS9_20_Prime_rehash_policyENS9_17_Hashtable_traitsILb0ELb0ELb1EEEE5clearEv
	.section	.text._ZNSt8__detail16_Hashtable_allocISaINS_10_Hash_nodeISt4pairIKmS2_IiPFiR10CallParamsEEELb0EEEEE21_M_deallocate_bucketsEPPNS_15_Hash_node_baseEm,"axG",@progbits,_ZNSt8__detail16_Hashtable_allocISaINS_10_Hash_nodeISt4pairIKmS2_IiPFiR10CallParamsEEELb0EEEEE21_M_deallocate_bucketsEPPNS_15_Hash_node_baseEm,comdat
	.align 2
	.weak	_ZNSt8__detail16_Hashtable_allocISaINS_10_Hash_nodeISt4pairIKmS2_IiPFiR10CallParamsEEELb0EEEEE21_M_deallocate_bucketsEPPNS_15_Hash_node_baseEm
	.type	_ZNSt8__detail16_Hashtable_allocISaINS_10_Hash_nodeISt4pairIKmS2_IiPFiR10CallParamsEEELb0EEEEE21_M_deallocate_bucketsEPPNS_15_Hash_node_baseEm, @function
_ZNSt8__detail16_Hashtable_allocISaINS_10_Hash_nodeISt4pairIKmS2_IiPFiR10CallParamsEEELb0EEEEE21_M_deallocate_bucketsEPPNS_15_Hash_node_baseEm:
.LFB2729:
	.loc 2 2115 0
	.cfi_startproc
.LVL25:
	sub	rsp, 8
	.cfi_def_cfa_offset 16
.LVL26:
.LBB615:
.LBB616:
.LBB617:
	.loc 3 125 0
	mov	rdi, rsi
.LVL27:
	call	_ZdlPv@PLT
.LVL28:
.LBE617:
.LBE616:
.LBE615:
	.loc 2 2122 0
	add	rsp, 8
	.cfi_def_cfa_offset 8
	ret
	.cfi_endproc
.LFE2729:
	.size	_ZNSt8__detail16_Hashtable_allocISaINS_10_Hash_nodeISt4pairIKmS2_IiPFiR10CallParamsEEELb0EEEEE21_M_deallocate_bucketsEPPNS_15_Hash_node_baseEm, .-_ZNSt8__detail16_Hashtable_allocISaINS_10_Hash_nodeISt4pairIKmS2_IiPFiR10CallParamsEEELb0EEEEE21_M_deallocate_bucketsEPPNS_15_Hash_node_baseEm
	.section	.text._ZNSt10_HashtableImSt4pairIKmS0_IiPFiR10CallParamsEEESaIS7_ENSt8__detail10_Select1stESt8equal_toImESt4hashImENS9_18_Mod_range_hashingENS9_20_Default_ranged_hashENS9_20_Prime_rehash_policyENS9_17_Hashtable_traitsILb0ELb0ELb1EEEED2Ev,"axG",@progbits,_ZNSt10_HashtableImSt4pairIKmS0_IiPFiR10CallParamsEEESaIS7_ENSt8__detail10_Select1stESt8equal_toImESt4hashImENS9_18_Mod_range_hashingENS9_20_Default_ranged_hashENS9_20_Prime_rehash_policyENS9_17_Hashtable_traitsILb0ELb0ELb1EEEED5Ev,comdat
	.align 2
	.weak	_ZNSt10_HashtableImSt4pairIKmS0_IiPFiR10CallParamsEEESaIS7_ENSt8__detail10_Select1stESt8equal_toImESt4hashImENS9_18_Mod_range_hashingENS9_20_Default_ranged_hashENS9_20_Prime_rehash_policyENS9_17_Hashtable_traitsILb0ELb0ELb1EEEED2Ev
	.type	_ZNSt10_HashtableImSt4pairIKmS0_IiPFiR10CallParamsEEESaIS7_ENSt8__detail10_Select1stESt8equal_toImESt4hashImENS9_18_Mod_range_hashingENS9_20_Default_ranged_hashENS9_20_Prime_rehash_policyENS9_17_Hashtable_traitsILb0ELb0ELb1EEEED2Ev, @function
_ZNSt10_HashtableImSt4pairIKmS0_IiPFiR10CallParamsEEESaIS7_ENSt8__detail10_Select1stESt8equal_toImESt4hashImENS9_18_Mod_range_hashingENS9_20_Default_ranged_hashENS9_20_Prime_rehash_policyENS9_17_Hashtable_traitsILb0ELb0ELb1EEEED2Ev:
.LFB2543:
	.loc 4 1354 0
	.cfi_startproc
.LVL29:
	push	rbx
	.cfi_def_cfa_offset 16
	.cfi_offset 3, -16
	mov	rbx, rdi
.LBB618:
	.loc 4 1358 0
	call	_ZNSt10_HashtableImSt4pairIKmS0_IiPFiR10CallParamsEEESaIS7_ENSt8__detail10_Select1stESt8equal_toImESt4hashImENS9_18_Mod_range_hashingENS9_20_Default_ranged_hashENS9_20_Prime_rehash_policyENS9_17_Hashtable_traitsILb0ELb0ELb1EEEE5clearEv
.LVL30:
.LBB619:
.LBB620:
	.loc 4 368 0
	mov	rdx, QWORD PTR 8[rbx]
	mov	rsi, QWORD PTR [rbx]
.LVL31:
.LBB621:
.LBB622:
.LBB623:
.LBB624:
	.loc 4 336 0
	lea	rax, 48[rbx]
.LVL32:
.LBE624:
.LBE623:
	.loc 4 360 0
	cmp	rsi, rax
	je	.L16
	.loc 4 363 0
	mov	rdi, rbx
	call	_ZNSt8__detail16_Hashtable_allocISaINS_10_Hash_nodeISt4pairIKmS2_IiPFiR10CallParamsEEELb0EEEEE21_M_deallocate_bucketsEPPNS_15_Hash_node_baseEm
.LVL33:
.L16:
.LBE622:
.LBE621:
.LBE620:
.LBE619:
.LBE618:
	.loc 4 1360 0
	pop	rbx
	.cfi_def_cfa_offset 8
.LVL34:
	ret
	.cfi_endproc
.LFE2543:
	.size	_ZNSt10_HashtableImSt4pairIKmS0_IiPFiR10CallParamsEEESaIS7_ENSt8__detail10_Select1stESt8equal_toImESt4hashImENS9_18_Mod_range_hashingENS9_20_Default_ranged_hashENS9_20_Prime_rehash_policyENS9_17_Hashtable_traitsILb0ELb0ELb1EEEED2Ev, .-_ZNSt10_HashtableImSt4pairIKmS0_IiPFiR10CallParamsEEESaIS7_ENSt8__detail10_Select1stESt8equal_toImESt4hashImENS9_18_Mod_range_hashingENS9_20_Default_ranged_hashENS9_20_Prime_rehash_policyENS9_17_Hashtable_traitsILb0ELb0ELb1EEEED2Ev
	.weak	_ZNSt10_HashtableImSt4pairIKmS0_IiPFiR10CallParamsEEESaIS7_ENSt8__detail10_Select1stESt8equal_toImESt4hashImENS9_18_Mod_range_hashingENS9_20_Default_ranged_hashENS9_20_Prime_rehash_policyENS9_17_Hashtable_traitsILb0ELb0ELb1EEEED1Ev
	.set	_ZNSt10_HashtableImSt4pairIKmS0_IiPFiR10CallParamsEEESaIS7_ENSt8__detail10_Select1stESt8equal_toImESt4hashImENS9_18_Mod_range_hashingENS9_20_Default_ranged_hashENS9_20_Prime_rehash_policyENS9_17_Hashtable_traitsILb0ELb0ELb1EEEED1Ev,_ZNSt10_HashtableImSt4pairIKmS0_IiPFiR10CallParamsEEESaIS7_ENSt8__detail10_Select1stESt8equal_toImESt4hashImENS9_18_Mod_range_hashingENS9_20_Default_ranged_hashENS9_20_Prime_rehash_policyENS9_17_Hashtable_traitsILb0ELb0ELb1EEEED2Ev
	.section	.text._ZNSt13unordered_mapImSt4pairIiPFiR10CallParamsEESt4hashImESt8equal_toImESaIS0_IKmS5_EEED2Ev,"axG",@progbits,_ZNSt13unordered_mapImSt4pairIiPFiR10CallParamsEESt4hashImESt8equal_toImESaIS0_IKmS5_EEED5Ev,comdat
	.align 2
	.weak	_ZNSt13unordered_mapImSt4pairIiPFiR10CallParamsEESt4hashImESt8equal_toImESaIS0_IKmS5_EEED2Ev
	.type	_ZNSt13unordered_mapImSt4pairIiPFiR10CallParamsEESt4hashImESt8equal_toImESaIS0_IKmS5_EEED2Ev, @function
_ZNSt13unordered_mapImSt4pairIiPFiR10CallParamsEESt4hashImESt8equal_toImESaIS0_IKmS5_EEED2Ev:
.LFB2279:
	.file 5 "/usr/include/c++/7/bits/unordered_map.h"
	.loc 5 101 0
	.cfi_startproc
.LVL35:
	sub	rsp, 8
	.cfi_def_cfa_offset 16
.LBB625:
	.loc 5 101 0
	call	_ZNSt10_HashtableImSt4pairIKmS0_IiPFiR10CallParamsEEESaIS7_ENSt8__detail10_Select1stESt8equal_toImESt4hashImENS9_18_Mod_range_hashingENS9_20_Default_ranged_hashENS9_20_Prime_rehash_policyENS9_17_Hashtable_traitsILb0ELb0ELb1EEEED1Ev
.LVL36:
.LBE625:
	add	rsp, 8
	.cfi_def_cfa_offset 8
	ret
	.cfi_endproc
.LFE2279:
	.size	_ZNSt13unordered_mapImSt4pairIiPFiR10CallParamsEESt4hashImESt8equal_toImESaIS0_IKmS5_EEED2Ev, .-_ZNSt13unordered_mapImSt4pairIiPFiR10CallParamsEESt4hashImESt8equal_toImESaIS0_IKmS5_EEED2Ev
	.weak	_ZNSt13unordered_mapImSt4pairIiPFiR10CallParamsEESt4hashImESt8equal_toImESaIS0_IKmS5_EEED1Ev
	.set	_ZNSt13unordered_mapImSt4pairIiPFiR10CallParamsEESt4hashImESt8equal_toImESaIS0_IKmS5_EEED1Ev,_ZNSt13unordered_mapImSt4pairIiPFiR10CallParamsEESt4hashImESt8equal_toImESaIS0_IKmS5_EEED2Ev
	.section	.text._ZNKSt10_HashtableImSt4pairIKmS0_IiPFiR10CallParamsEEESaIS7_ENSt8__detail10_Select1stESt8equal_toImESt4hashImENS9_18_Mod_range_hashingENS9_20_Default_ranged_hashENS9_20_Prime_rehash_policyENS9_17_Hashtable_traitsILb0ELb0ELb1EEEE19_M_find_before_nodeEmRS1_m,"axG",@progbits,_ZNKSt10_HashtableImSt4pairIKmS0_IiPFiR10CallParamsEEESaIS7_ENSt8__detail10_Select1stESt8equal_toImESt4hashImENS9_18_Mod_range_hashingENS9_20_Default_ranged_hashENS9_20_Prime_rehash_policyENS9_17_Hashtable_traitsILb0ELb0ELb1EEEE19_M_find_before_nodeEmRS1_m,comdat
	.align 2
	.weak	_ZNKSt10_HashtableImSt4pairIKmS0_IiPFiR10CallParamsEEESaIS7_ENSt8__detail10_Select1stESt8equal_toImESt4hashImENS9_18_Mod_range_hashingENS9_20_Default_ranged_hashENS9_20_Prime_rehash_policyENS9_17_Hashtable_traitsILb0ELb0ELb1EEEE19_M_find_before_nodeEmRS1_m
	.type	_ZNKSt10_HashtableImSt4pairIKmS0_IiPFiR10CallParamsEEESaIS7_ENSt8__detail10_Select1stESt8equal_toImESt4hashImENS9_18_Mod_range_hashingENS9_20_Default_ranged_hashENS9_20_Prime_rehash_policyENS9_17_Hashtable_traitsILb0ELb0ELb1EEEE19_M_find_before_nodeEmRS1_m, @function
_ZNKSt10_HashtableImSt4pairIKmS0_IiPFiR10CallParamsEEESaIS7_ENSt8__detail10_Select1stESt8equal_toImESt4hashImENS9_18_Mod_range_hashingENS9_20_Default_ranged_hashENS9_20_Prime_rehash_policyENS9_17_Hashtable_traitsILb0ELb0ELb1EEEE19_M_find_before_nodeEmRS1_m:
.LFB2732:
	.loc 4 1538 0
	.cfi_startproc
.LVL37:
	mov	r9, rdx
	.loc 4 1544 0
	lea	rax, 0[0+rsi*8]
	add	rax, QWORD PTR [rdi]
	mov	rax, QWORD PTR [rax]
.LVL38:
	.loc 4 1545 0
	test	rax, rax
	je	.L21
.LBB626:
	.loc 4 1548 0
	mov	rcx, QWORD PTR [rax]
.LVL39:
.L23:
	.loc 4 1551 0
	mov	rdx, QWORD PTR [r9]
	cmp	QWORD PTR 8[rcx], rdx
	je	.L21
	.loc 4 1554 0
	mov	r8, QWORD PTR [rcx]
	test	r8, r8
	je	.L24
.LVL40:
.LBB627:
.LBB628:
.LBB629:
.LBB630:
	.loc 2 1291 0
	mov	rax, QWORD PTR 8[r8]
.LVL41:
.LBB631:
.LBB632:
	.loc 2 448 0
	mov	edx, 0
	div	QWORD PTR 8[rdi]
.LVL42:
.LBE632:
.LBE631:
.LBE630:
.LBE629:
.LBE628:
.LBE627:
	.loc 4 1556 0
	mov	rax, rcx
	.loc 4 1548 0
	mov	rcx, r8
.LVL43:
	.loc 4 1554 0
	cmp	rsi, rdx
	je	.L23
.LBE626:
	.loc 4 1558 0
	mov	eax, 0
.LVL44:
.LBB633:
	ret
.LVL45:
.L24:
.LBE633:
	mov	eax, 0
.LVL46:
.L21:
	.loc 4 1559 0
	rep ret
	.cfi_endproc
.LFE2732:
	.size	_ZNKSt10_HashtableImSt4pairIKmS0_IiPFiR10CallParamsEEESaIS7_ENSt8__detail10_Select1stESt8equal_toImESt4hashImENS9_18_Mod_range_hashingENS9_20_Default_ranged_hashENS9_20_Prime_rehash_policyENS9_17_Hashtable_traitsILb0ELb0ELb1EEEE19_M_find_before_nodeEmRS1_m, .-_ZNKSt10_HashtableImSt4pairIKmS0_IiPFiR10CallParamsEEESaIS7_ENSt8__detail10_Select1stESt8equal_toImESt4hashImENS9_18_Mod_range_hashingENS9_20_Default_ranged_hashENS9_20_Prime_rehash_policyENS9_17_Hashtable_traitsILb0ELb0ELb1EEEE19_M_find_before_nodeEmRS1_m
	.section	.rodata._ZNSt8__detail9_Map_baseImSt4pairIKmS1_IiPFiR10CallParamsEEESaIS8_ENS_10_Select1stESt8equal_toImESt4hashImENS_18_Mod_range_hashingENS_20_Default_ranged_hashENS_20_Prime_rehash_policyENS_17_Hashtable_traitsILb0ELb0ELb1EEELb1EE2atERS2_.str1.1,"aMS",@progbits,1
.LC0:
	.string	"_Map_base::at"
	.section	.text._ZNSt8__detail9_Map_baseImSt4pairIKmS1_IiPFiR10CallParamsEEESaIS8_ENS_10_Select1stESt8equal_toImESt4hashImENS_18_Mod_range_hashingENS_20_Default_ranged_hashENS_20_Prime_rehash_policyENS_17_Hashtable_traitsILb0ELb0ELb1EEELb1EE2atERS2_,"axG",@progbits,_ZNSt8__detail9_Map_baseImSt4pairIKmS1_IiPFiR10CallParamsEEESaIS8_ENS_10_Select1stESt8equal_toImESt4hashImENS_18_Mod_range_hashingENS_20_Default_ranged_hashENS_20_Prime_rehash_policyENS_17_Hashtable_traitsILb0ELb0ELb1EEELb1EE2atERS2_,comdat
	.align 2
	.weak	_ZNSt8__detail9_Map_baseImSt4pairIKmS1_IiPFiR10CallParamsEEESaIS8_ENS_10_Select1stESt8equal_toImESt4hashImENS_18_Mod_range_hashingENS_20_Default_ranged_hashENS_20_Prime_rehash_policyENS_17_Hashtable_traitsILb0ELb0ELb1EEELb1EE2atERS2_
	.type	_ZNSt8__detail9_Map_baseImSt4pairIKmS1_IiPFiR10CallParamsEEESaIS8_ENS_10_Select1stESt8equal_toImESt4hashImENS_18_Mod_range_hashingENS_20_Default_ranged_hashENS_20_Prime_rehash_policyENS_17_Hashtable_traitsILb0ELb0ELb1EEELb1EE2atERS2_, @function
_ZNSt8__detail9_Map_baseImSt4pairIKmS1_IiPFiR10CallParamsEEESaIS8_ENS_10_Select1stESt8equal_toImESt4hashImENS_18_Mod_range_hashingENS_20_Default_ranged_hashENS_20_Prime_rehash_policyENS_17_Hashtable_traitsILb0ELb0ELb1EEELb1EE2atERS2_:
.LFB2624:
	.loc 2 763 0
	.cfi_startproc
.LVL47:
	sub	rsp, 8
	.cfi_def_cfa_offset 16
.LVL48:
.LBB634:
.LBB635:
	.loc 2 1280 0
	mov	rcx, QWORD PTR [rsi]
.LVL49:
.LBE635:
.LBE634:
.LBB636:
.LBB637:
.LBB638:
.LBB639:
.LBB640:
	.loc 2 448 0
	mov	rax, rcx
	mov	edx, 0
	div	QWORD PTR 8[rdi]
	mov	r8, rdx
.LVL50:
.LBE640:
.LBE639:
.LBE638:
.LBE637:
.LBE636:
.LBB641:
.LBB642:
	.loc 4 642 0
	mov	rdx, rsi
.LVL51:
	mov	rsi, r8
.LVL52:
	call	_ZNKSt10_HashtableImSt4pairIKmS0_IiPFiR10CallParamsEEESaIS7_ENSt8__detail10_Select1stESt8equal_toImESt4hashImENS9_18_Mod_range_hashingENS9_20_Default_ranged_hashENS9_20_Prime_rehash_policyENS9_17_Hashtable_traitsILb0ELb0ELb1EEEE19_M_find_before_nodeEmRS1_m
.LVL53:
	.loc 4 643 0
	test	rax, rax
	je	.L26
	.loc 4 644 0
	mov	rax, QWORD PTR [rax]
.LVL54:
.LBE642:
.LBE641:
	.loc 2 773 0
	test	rax, rax
	je	.L26
	.loc 2 775 0
	add	rax, 16
.LVL55:
	.loc 2 776 0
	add	rsp, 8
	.cfi_remember_state
	.cfi_def_cfa_offset 8
	ret
.LVL56:
.L26:
	.cfi_restore_state
	.loc 2 774 0
	lea	rdi, .LC0[rip]
	call	_ZSt20__throw_out_of_rangePKc@PLT
.LVL57:
	.cfi_endproc
.LFE2624:
	.size	_ZNSt8__detail9_Map_baseImSt4pairIKmS1_IiPFiR10CallParamsEEESaIS8_ENS_10_Select1stESt8equal_toImESt4hashImENS_18_Mod_range_hashingENS_20_Default_ranged_hashENS_20_Prime_rehash_policyENS_17_Hashtable_traitsILb0ELb0ELb1EEELb1EE2atERS2_, .-_ZNSt8__detail9_Map_baseImSt4pairIKmS1_IiPFiR10CallParamsEEESaIS8_ENS_10_Select1stESt8equal_toImESt4hashImENS_18_Mod_range_hashingENS_20_Default_ranged_hashENS_20_Prime_rehash_policyENS_17_Hashtable_traitsILb0ELb0ELb1EEELb1EE2atERS2_
	.section	.rodata.str1.1,"aMS",@progbits,1
.LC1:
	.string	"CALL %d :: %s ; %llu \n"
	.text
	.globl	_Z16processMultichariiPc
	.type	_Z16processMultichariiPc, @function
_Z16processMultichariiPc:
.LFB2282:
	.loc 1 27 0
	.cfi_startproc
	.cfi_personality 0x9b,DW.ref.__gxx_personality_v0
	.cfi_lsda 0x1b,.LLSDA2282
.LVL58:
	push	r12
	.cfi_def_cfa_offset 16
	.cfi_offset 12, -16
	push	rbp
	.cfi_def_cfa_offset 24
	.cfi_offset 6, -24
	push	rbx
	.cfi_def_cfa_offset 32
	.cfi_offset 3, -32
	sub	rsp, 16
	.cfi_def_cfa_offset 48
	mov	rbp, rdi
	mov	eax, esi
	.loc 1 27 0
	mov	rdi, QWORD PTR fs:40
	mov	QWORD PTR 8[rsp], rdi
	xor	edi, edi
.LVL59:
	.loc 1 28 0
	sub	edx, esi
.LVL60:
	mov	r12d, edx
	movsx	rsi, edx
.LVL61:
	cdqe
	lea	rdi, [rcx+rax]
	call	_Z7strndupPKcm
.LVL62:
	mov	rbx, rax
.LVL63:
.LBB643:
.LBB644:
.LBB645:
	.file 6 "src/interpreter.hh"
	.loc 6 8 0
	mov	ecx, 0
.LBE645:
	.loc 6 7 0
	movabs	rdx, 525201411107845655
.LVL64:
.L31:
.LBB646:
	.loc 6 8 0
	movsx	rax, ecx
	movzx	eax, BYTE PTR [rbx+rax]
	test	al, al
	je	.L30
	.loc 6 9 0
	movsx	r8, al
	xor	r8, rdx
.LVL65:
	.loc 6 10 0
	movabs	rax, 6616326155283851669
	imul	r8, rax
.LVL66:
	.loc 6 11 0
	mov	rdx, r8
	shr	rdx, 47
	xor	rdx, r8
.LVL67:
	.loc 6 8 0
	add	ecx, 1
.LVL68:
	jmp	.L31
.L30:
.LVL69:
.LBE646:
.LBE644:
.LBE643:
	.loc 1 29 0
	mov	QWORD PTR [rsp], rdx
.LVL70:
.LBB647:
.LBB648:
	.file 7 "/usr/include/x86_64-linux-gnu/bits/stdio2.h"
	.loc 7 104 0
	mov	r8, rdx
	mov	rcx, rbx
	mov	edx, r12d
	lea	rsi, .LC1[rip]
	mov	edi, 1
	mov	eax, 0
.LEHB0:
	call	__printf_chk@PLT
.LVL71:
.LEHE0:
.LBE648:
.LBE647:
.LBB649:
.LBB650:
.LBB651:
	.loc 5 990 0
	mov	rsi, rsp
	lea	rdi, multicharMapping[rip]
.LEHB1:
	call	_ZNSt8__detail9_Map_baseImSt4pairIKmS1_IiPFiR10CallParamsEEESaIS8_ENS_10_Select1stESt8equal_toImESt4hashImENS_18_Mod_range_hashingENS_20_Default_ranged_hashENS_20_Prime_rehash_policyENS_17_Hashtable_traitsILb0ELb0ELb1EEELb1EE2atERS2_
.LVL72:
.LEHE1:
.LBE651:
.LBE650:
	.loc 1 32 0
	mov	r12d, DWORD PTR [rax]
.LVL73:
	.loc 1 33 0
	mov	rdi, rbx
	call	free@PLT
.LVL74:
	.loc 1 34 0
	mov	DWORD PTR 0[rbp], r12d
	mov	QWORD PTR 8[rbp], 0
	mov	DWORD PTR 16[rbp], 0
.LVL75:
.L29:
.LBE649:
	.loc 1 37 0
	mov	rax, rbp
	mov	rsi, QWORD PTR 8[rsp]
	xor	rsi, QWORD PTR fs:40
	jne	.L37
.LVL76:
	add	rsp, 16
	.cfi_remember_state
	.cfi_def_cfa_offset 32
	pop	rbx
	.cfi_def_cfa_offset 24
.LVL77:
	pop	rbp
	.cfi_def_cfa_offset 16
	pop	r12
	.cfi_def_cfa_offset 8
	ret
.LVL78:
.L35:
	.cfi_restore_state
	.loc 1 36 0
	mov	rdi, rax
	call	__cxa_begin_catch@PLT
.LVL79:
	mov	DWORD PTR 0[rbp], 0
	mov	QWORD PTR 8[rbp], rbx
	mov	DWORD PTR 16[rbp], r12d
.LEHB2:
	call	__cxa_end_catch@PLT
.LVL80:
.LEHE2:
	jmp	.L29
.LVL81:
.L37:
	.loc 1 37 0
	call	__stack_chk_fail@PLT
.LVL82:
	.cfi_endproc
.LFE2282:
	.globl	__gxx_personality_v0
	.section	.gcc_except_table,"a",@progbits
	.align 4
.LLSDA2282:
	.byte	0xff
	.byte	0x9b
	.uleb128 .LLSDATT2282-.LLSDATTD2282
.LLSDATTD2282:
	.byte	0x1
	.uleb128 .LLSDACSE2282-.LLSDACSB2282
.LLSDACSB2282:
	.uleb128 .LEHB0-.LFB2282
	.uleb128 .LEHE0-.LEHB0
	.uleb128 0
	.uleb128 0
	.uleb128 .LEHB1-.LFB2282
	.uleb128 .LEHE1-.LEHB1
	.uleb128 .L35-.LFB2282
	.uleb128 0x1
	.uleb128 .LEHB2-.LFB2282
	.uleb128 .LEHE2-.LEHB2
	.uleb128 0
	.uleb128 0
.LLSDACSE2282:
	.byte	0x1
	.byte	0
	.align 4
	.long	0

.LLSDATT2282:
	.text
	.size	_Z16processMultichariiPc, .-_Z16processMultichariiPc
	.globl	_Z3lexPci
	.type	_Z3lexPci, @function
_Z3lexPci:
.LFB2283:
	.loc 1 39 0
	.cfi_startproc
.LVL83:
	push	r15
	.cfi_def_cfa_offset 16
	.cfi_offset 15, -16
	push	r14
	.cfi_def_cfa_offset 24
	.cfi_offset 14, -24
	push	r13
	.cfi_def_cfa_offset 32
	.cfi_offset 13, -32
	push	r12
	.cfi_def_cfa_offset 40
	.cfi_offset 12, -40
	push	rbp
	.cfi_def_cfa_offset 48
	.cfi_offset 6, -48
	push	rbx
	.cfi_def_cfa_offset 56
	.cfi_offset 3, -56
	sub	rsp, 104
	.cfi_def_cfa_offset 160
	mov	QWORD PTR 8[rsp], rdi
	mov	DWORD PTR 20[rsp], esi
	.loc 1 39 0
	mov	rax, QWORD PTR fs:40
	mov	QWORD PTR 88[rsp], rax
	xor	eax, eax
.LVL84:
	.loc 1 41 0
	mov	edi, 3072
.LVL85:
	call	malloc@PLT
.LVL86:
	mov	r14, rax
.LVL87:
	.loc 1 49 0
	mov	WORD PTR 32[rsp], 0
	mov	QWORD PTR 40[rsp], 0
	mov	QWORD PTR 48[rsp], 0
.LVL88:
	.loc 1 50 0
	mov	r15d, 0
	mov	BYTE PTR 7[rsp], 0
	.loc 1 48 0
	mov	r13d, -1
	mov	DWORD PTR 16[rsp], r13d
	mov	ebp, 0
	mov	DWORD PTR 28[rsp], 0
	.loc 1 40 0
	mov	ebx, 0
	mov	DWORD PTR 24[rsp], 3072
	jmp	.L69
.LVL89:
.L79:
.LBB652:
	.loc 1 53 0 discriminator 1
	mov	esi, DWORD PTR 24[rsp]
	add	esi, 3072
	mov	DWORD PTR 24[rsp], esi
.LVL90:
	movsx	rsi, esi
.LVL91:
	mov	rdi, r14
	call	realloc@PLT
.LVL92:
	mov	r14, rax
.LVL93:
	jmp	.L40
.LVL94:
.L48:
	.loc 1 60 0
	mov	WORD PTR 32[rsp], 3
	mov	QWORD PTR 40[rsp], 0
	mov	QWORD PTR 48[rsp], 0
.LVL95:
	mov	BYTE PTR 7[rsp], 1
	mov	r12d, 3
	jmp	.L42
.LVL96:
.L49:
	.loc 1 61 0
	mov	WORD PTR 32[rsp], 4
	mov	QWORD PTR 40[rsp], 0
	mov	QWORD PTR 48[rsp], 0
.LVL97:
	mov	BYTE PTR 7[rsp], 1
	mov	r12d, 4
	jmp	.L42
.LVL98:
.L51:
	.loc 1 62 0
	mov	WORD PTR 32[rsp], 5
	mov	QWORD PTR 40[rsp], 0
	mov	QWORD PTR 48[rsp], 0
.LVL99:
	mov	BYTE PTR 7[rsp], 1
	mov	r12d, 5
	jmp	.L42
.LVL100:
.L53:
	.loc 1 63 0
	mov	WORD PTR 32[rsp], 6
	mov	QWORD PTR 40[rsp], 0
	mov	QWORD PTR 48[rsp], 0
.LVL101:
	mov	BYTE PTR 7[rsp], 1
	mov	r12d, 6
	jmp	.L42
.LVL102:
.L50:
	.loc 1 64 0
	mov	WORD PTR 32[rsp], 7
	mov	QWORD PTR 40[rsp], 0
	mov	QWORD PTR 48[rsp], 0
.LVL103:
	mov	BYTE PTR 7[rsp], 1
	mov	r12d, 7
	jmp	.L42
.LVL104:
.L54:
	.loc 1 65 0
	mov	WORD PTR 32[rsp], 8
	mov	QWORD PTR 40[rsp], 0
	mov	QWORD PTR 48[rsp], 0
.LVL105:
	mov	BYTE PTR 7[rsp], 1
	mov	r12d, 8
	jmp	.L42
.LVL106:
.L58:
	.loc 1 66 0
	mov	WORD PTR 32[rsp], 9
	mov	QWORD PTR 40[rsp], 0
	mov	QWORD PTR 48[rsp], 0
.LVL107:
	mov	BYTE PTR 7[rsp], 1
	mov	r12d, 9
	jmp	.L42
.LVL108:
.L61:
	.loc 1 67 0
	mov	WORD PTR 32[rsp], 10
	mov	QWORD PTR 40[rsp], 0
	mov	QWORD PTR 48[rsp], 0
.LVL109:
	mov	BYTE PTR 7[rsp], 1
	mov	r12d, 10
	jmp	.L42
.LVL110:
.L47:
	.loc 1 68 0
	mov	WORD PTR 32[rsp], 11
	mov	QWORD PTR 40[rsp], 0
	mov	QWORD PTR 48[rsp], 0
.LVL111:
	mov	BYTE PTR 7[rsp], 1
	mov	r12d, 11
	jmp	.L42
.LVL112:
.L62:
	.loc 1 69 0
	mov	WORD PTR 32[rsp], 14
	mov	QWORD PTR 40[rsp], 0
	mov	QWORD PTR 48[rsp], 0
.LVL113:
	mov	BYTE PTR 7[rsp], 1
	mov	r12d, 14
	jmp	.L42
.LVL114:
.L60:
	.loc 1 70 0
	mov	WORD PTR 32[rsp], 15
	mov	QWORD PTR 40[rsp], 0
	mov	QWORD PTR 48[rsp], 0
.LVL115:
	mov	BYTE PTR 7[rsp], 1
	mov	r12d, 15
	jmp	.L42
.LVL116:
.L52:
	.loc 1 71 0
	mov	WORD PTR 32[rsp], 16
	mov	QWORD PTR 40[rsp], 0
	mov	QWORD PTR 48[rsp], 0
.LVL117:
	mov	BYTE PTR 7[rsp], 1
	mov	r12d, 16
	jmp	.L42
.LVL118:
.L59:
	.loc 1 72 0
	mov	WORD PTR 32[rsp], 18
	mov	QWORD PTR 40[rsp], 0
	mov	QWORD PTR 48[rsp], 0
.LVL119:
	mov	BYTE PTR 7[rsp], 1
	mov	r12d, 18
	jmp	.L42
.LVL120:
.L57:
	.loc 1 73 0
	mov	WORD PTR 32[rsp], 17
	mov	QWORD PTR 40[rsp], 0
	mov	QWORD PTR 48[rsp], 0
.LVL121:
	mov	BYTE PTR 7[rsp], 1
	mov	r12d, 17
	jmp	.L42
.LVL122:
.L56:
	.loc 1 74 0
	mov	WORD PTR 32[rsp], 19
	mov	QWORD PTR 40[rsp], 0
	mov	QWORD PTR 48[rsp], 0
.LVL123:
	mov	BYTE PTR 7[rsp], 1
	mov	r12d, 19
	jmp	.L42
.LVL124:
.L45:
	.loc 1 75 0
	xor	r15d, 1
.LVL125:
	mov	WORD PTR 32[rsp], 20
	mov	QWORD PTR 40[rsp], 0
	mov	QWORD PTR 48[rsp], 0
.LVL126:
	mov	BYTE PTR 7[rsp], 1
	mov	r12d, 20
	jmp	.L42
.LVL127:
.L46:
	.loc 1 76 0
	xor	r15d, 1
.LVL128:
	mov	WORD PTR 32[rsp], 12
	mov	QWORD PTR 40[rsp], 0
	mov	QWORD PTR 48[rsp], 0
.LVL129:
	mov	BYTE PTR 7[rsp], 1
	mov	r12d, 12
	jmp	.L42
.LVL130:
.L44:
	.loc 1 77 0
	xor	r15d, 1
.LVL131:
	mov	WORD PTR 32[rsp], 13
	mov	QWORD PTR 40[rsp], 0
	mov	QWORD PTR 48[rsp], 0
.LVL132:
	mov	BYTE PTR 7[rsp], 1
	mov	r12d, 13
	jmp	.L42
.LVL133:
.L55:
	.loc 1 87 0
	cmp	DWORD PTR 16[rsp], -1
	je	.L76
	mov	r12d, 0
	jmp	.L42
.L76:
	.loc 1 87 0 is_stmt 0 discriminator 2
	mov	eax, DWORD PTR 28[rsp]
	lea	eax, [rax+rax*4]
	lea	eax, -48[rcx+rax*2]
	mov	DWORD PTR 28[rsp], eax
.LVL134:
	mov	r12d, 2
	jmp	.L42
.LVL135:
.L41:
	.loc 1 88 0 is_stmt 1
	cmp	DWORD PTR 16[rsp], -1
	je	.L73
	mov	r12d, 0
	jmp	.L42
.L71:
	.loc 1 58 0
	mov	r12d, 1
.LVL136:
.L42:
	.loc 1 91 0
	test	r15b, r15b
	je	.L63
	.loc 1 91 0 is_stmt 0 discriminator 1
	cmp	DWORD PTR 16[rsp], -1
	je	.L77
	.loc 1 91 0
	mov	r12d, 0
.LVL137:
.L63:
.LBB653:
	.loc 1 93 0 is_stmt 1
	test	r13d, r13d
	sete	dl
	test	r12d, r12d
	setne	al
	test	dl, al
	jne	.L78
	.loc 1 100 0
	cmp	r13d, 2
	sete	dl
	cmp	r12d, 2
	setne	al
	test	dl, al
	je	.L67
	.loc 1 100 0 is_stmt 0 discriminator 1
	test	r15b, r15b
	jne	.L67
.LVL138:
	.loc 1 100 0 discriminator 2
	movsx	rax, ebx
	lea	rax, [rax+rax*2]
	lea	rax, [r14+rax*8]
	mov	WORD PTR [rax], 2
	movsx	rdx, DWORD PTR 28[rsp]
	mov	QWORD PTR 8[rax], rdx
	mov	QWORD PTR 16[rax], 0
.LVL139:
	lea	ebx, 1[rbx]
.LVL140:
	mov	DWORD PTR 28[rsp], 0
	jmp	.L67
.LVL141:
.L73:
.LBE653:
	.loc 1 88 0 is_stmt 1
	mov	DWORD PTR 16[rsp], ebp
.LVL142:
	mov	r12d, 0
	jmp	.L42
.LVL143:
.L77:
	.loc 1 91 0 discriminator 2
	lea	eax, 1[rbp]
	mov	DWORD PTR 16[rsp], eax
.LVL144:
	mov	r12d, 0
.LVL145:
	jmp	.L63
.LVL146:
.L78:
.LBB656:
.LBB654:
	.loc 1 94 0
	lea	rdi, 64[rsp]
	mov	rcx, QWORD PTR 8[rsp]
	mov	edx, ebp
	mov	esi, DWORD PTR 16[rsp]
	call	_Z16processMultichariiPc
.LVL147:
	.loc 1 96 0
	mov	eax, DWORD PTR 64[rsp]
	test	eax, eax
	je	.L65
.LVL148:
	.loc 1 96 0 is_stmt 0 discriminator 1
	movsx	rdx, ebx
	lea	rdx, [rdx+rdx*2]
	lea	rdx, [r14+rdx*8]
	mov	WORD PTR [rdx], ax
	mov	QWORD PTR 8[rdx], 0
	mov	QWORD PTR 16[rdx], 0
	lea	ebx, 1[rbx]
.LVL149:
.L66:
	.loc 1 98 0 is_stmt 1
	mov	DWORD PTR 16[rsp], -1
.LVL150:
.L67:
.LBE654:
.LBE656:
	.loc 1 103 0
	cmp	BYTE PTR 7[rsp], 0
	je	.L68
.LVL151:
	.loc 1 104 0
	movsx	rax, ebx
	lea	rax, [rax+rax*2]
	lea	rax, [r14+rax*8]
	movzx	edx, WORD PTR 32[rsp]
	mov	WORD PTR [rax], dx
	mov	rdx, QWORD PTR 40[rsp]
	mov	QWORD PTR 8[rax], rdx
	mov	rdx, QWORD PTR 48[rsp]
	mov	QWORD PTR 16[rax], rdx
.LVL152:
	lea	ebx, 1[rbx]
.LVL153:
	.loc 1 106 0
	mov	BYTE PTR 7[rsp], 0
.LVL154:
.L68:
	.loc 1 109 0
	add	ebp, 1
.LVL155:
	.loc 1 101 0
	mov	r13d, r12d
.LVL156:
.L69:
.LBE652:
	.loc 1 52 0
	cmp	ebp, DWORD PTR 20[rsp]
	jge	.L39
.LBB658:
	.loc 1 53 0
	cmp	ebx, 127
	jg	.L79
.L40:
	.loc 1 55 0
	movsx	rax, ebp
	mov	rdi, QWORD PTR 8[rsp]
	movzx	eax, BYTE PTR [rdi+rax]
	movsx	ecx, al
	sub	eax, 9
	cmp	al, 117
	ja	.L41
	movzx	eax, al
	lea	rdx, .L43[rip]
	movsx	rax, DWORD PTR [rdx+rax*4]
	add	rax, rdx
	jmp	rax
	.section	.rodata
	.align 4
	.align 4
.L43:
	.long	.L71-.L43
	.long	.L71-.L43
	.long	.L41-.L43
	.long	.L41-.L43
	.long	.L41-.L43
	.long	.L41-.L43
	.long	.L41-.L43
	.long	.L41-.L43
	.long	.L41-.L43
	.long	.L41-.L43
	.long	.L41-.L43
	.long	.L41-.L43
	.long	.L41-.L43
	.long	.L41-.L43
	.long	.L41-.L43
	.long	.L41-.L43
	.long	.L41-.L43
	.long	.L41-.L43
	.long	.L41-.L43
	.long	.L41-.L43
	.long	.L41-.L43
	.long	.L41-.L43
	.long	.L41-.L43
	.long	.L71-.L43
	.long	.L44-.L43
	.long	.L45-.L43
	.long	.L41-.L43
	.long	.L41-.L43
	.long	.L46-.L43
	.long	.L47-.L43
	.long	.L41-.L43
	.long	.L48-.L43
	.long	.L49-.L43
	.long	.L50-.L43
	.long	.L51-.L43
	.long	.L52-.L43
	.long	.L53-.L43
	.long	.L41-.L43
	.long	.L54-.L43
	.long	.L55-.L43
	.long	.L55-.L43
	.long	.L55-.L43
	.long	.L55-.L43
	.long	.L55-.L43
	.long	.L55-.L43
	.long	.L55-.L43
	.long	.L55-.L43
	.long	.L55-.L43
	.long	.L55-.L43
	.long	.L56-.L43
	.long	.L41-.L43
	.long	.L57-.L43
	.long	.L58-.L43
	.long	.L59-.L43
	.long	.L41-.L43
	.long	.L41-.L43
	.long	.L41-.L43
	.long	.L41-.L43
	.long	.L41-.L43
	.long	.L41-.L43
	.long	.L41-.L43
	.long	.L41-.L43
	.long	.L41-.L43
	.long	.L41-.L43
	.long	.L41-.L43
	.long	.L41-.L43
	.long	.L41-.L43
	.long	.L41-.L43
	.long	.L41-.L43
	.long	.L41-.L43
	.long	.L41-.L43
	.long	.L41-.L43
	.long	.L41-.L43
	.long	.L41-.L43
	.long	.L41-.L43
	.long	.L41-.L43
	.long	.L41-.L43
	.long	.L41-.L43
	.long	.L41-.L43
	.long	.L41-.L43
	.long	.L41-.L43
	.long	.L41-.L43
	.long	.L41-.L43
	.long	.L41-.L43
	.long	.L41-.L43
	.long	.L60-.L43
	.long	.L41-.L43
	.long	.L41-.L43
	.long	.L41-.L43
	.long	.L41-.L43
	.long	.L41-.L43
	.long	.L41-.L43
	.long	.L41-.L43
	.long	.L41-.L43
	.long	.L41-.L43
	.long	.L41-.L43
	.long	.L41-.L43
	.long	.L41-.L43
	.long	.L41-.L43
	.long	.L41-.L43
	.long	.L41-.L43
	.long	.L41-.L43
	.long	.L41-.L43
	.long	.L41-.L43
	.long	.L41-.L43
	.long	.L41-.L43
	.long	.L41-.L43
	.long	.L41-.L43
	.long	.L41-.L43
	.long	.L41-.L43
	.long	.L41-.L43
	.long	.L41-.L43
	.long	.L41-.L43
	.long	.L41-.L43
	.long	.L41-.L43
	.long	.L61-.L43
	.long	.L41-.L43
	.long	.L62-.L43
	.text
.LVL157:
.L65:
.LBB657:
.LBB655:
	.loc 1 97 0
	lea	ecx, 1[rbx]
.LVL158:
	movsx	rbx, ebx
	lea	rax, [rbx+rbx*2]
	lea	rax, [r14+rax*8]
	mov	WORD PTR [rax], 0
	mov	rdx, QWORD PTR 72[rsp]
	mov	QWORD PTR 8[rax], rdx
	mov	QWORD PTR 16[rax], 0
	movsx	rax, ecx
	lea	rax, [rax+rax*2]
	movsx	rdx, DWORD PTR 80[rsp]
	mov	QWORD PTR -8[r14+rax*8], rdx
	mov	ebx, ecx
	jmp	.L66
.LVL159:
.L39:
.LBE655:
.LBE657:
.LBE658:
	.loc 1 116 0
	mov	edx, ebx
	.loc 1 117 0
	mov	rax, r14
	mov	rcx, QWORD PTR 88[rsp]
	xor	rcx, QWORD PTR fs:40
	jne	.L80
.LVL160:
	add	rsp, 104
	.cfi_remember_state
	.cfi_def_cfa_offset 56
	pop	rbx
	.cfi_def_cfa_offset 48
.LVL161:
	pop	rbp
	.cfi_def_cfa_offset 40
.LVL162:
	pop	r12
	.cfi_def_cfa_offset 32
	pop	r13
	.cfi_def_cfa_offset 24
.LVL163:
	pop	r14
	.cfi_def_cfa_offset 16
	pop	r15
	.cfi_def_cfa_offset 8
.LVL164:
	ret
.LVL165:
.L80:
	.cfi_restore_state
	call	__stack_chk_fail@PLT
.LVL166:
	.cfi_endproc
.LFE2283:
	.size	_Z3lexPci, .-_Z3lexPci
	.section	.text._ZNSt8__detail16_Hashtable_allocISaINS_10_Hash_nodeISt4pairIKmS2_IiPFiR10CallParamsEEELb0EEEEE19_M_allocate_bucketsEm,"axG",@progbits,_ZNSt8__detail16_Hashtable_allocISaINS_10_Hash_nodeISt4pairIKmS2_IiPFiR10CallParamsEEELb0EEEEE19_M_allocate_bucketsEm,comdat
	.align 2
	.weak	_ZNSt8__detail16_Hashtable_allocISaINS_10_Hash_nodeISt4pairIKmS2_IiPFiR10CallParamsEEELb0EEEEE19_M_allocate_bucketsEm
	.type	_ZNSt8__detail16_Hashtable_allocISaINS_10_Hash_nodeISt4pairIKmS2_IiPFiR10CallParamsEEELb0EEEEE19_M_allocate_bucketsEm, @function
_ZNSt8__detail16_Hashtable_allocISaINS_10_Hash_nodeISt4pairIKmS2_IiPFiR10CallParamsEEELb0EEEEE19_M_allocate_bucketsEm:
.LFB2796:
	.loc 2 2103 0
	.cfi_startproc
.LVL167:
	push	rbp
	.cfi_def_cfa_offset 16
	.cfi_offset 6, -16
	push	rbx
	.cfi_def_cfa_offset 24
	.cfi_offset 3, -24
	sub	rsp, 8
	.cfi_def_cfa_offset 32
.LVL168:
.LBB659:
.LBB660:
.LBB661:
	.loc 3 101 0
	movabs	rax, 2305843009213693951
	cmp	rsi, rax
	ja	.L84
	.loc 3 111 0
	lea	rbx, 0[0+rsi*8]
	mov	rdi, rbx
.LVL169:
	call	_Znwm@PLT
.LVL170:
.LBE661:
.LBE660:
.LBE659:
	.loc 2 2109 0
	mov	rdx, rbx
	mov	esi, 0
	mov	rdi, rax
	call	memset@PLT
.LVL171:
	.loc 2 2111 0
	add	rsp, 8
	.cfi_remember_state
	.cfi_def_cfa_offset 24
	pop	rbx
	.cfi_def_cfa_offset 16
	pop	rbp
	.cfi_def_cfa_offset 8
	ret
.LVL172:
.L84:
	.cfi_restore_state
.LBB664:
.LBB663:
.LBB662:
	.loc 3 102 0
	call	_ZSt17__throw_bad_allocv@PLT
.LVL173:
.LBE662:
.LBE663:
.LBE664:
	.cfi_endproc
.LFE2796:
	.size	_ZNSt8__detail16_Hashtable_allocISaINS_10_Hash_nodeISt4pairIKmS2_IiPFiR10CallParamsEEELb0EEEEE19_M_allocate_bucketsEm, .-_ZNSt8__detail16_Hashtable_allocISaINS_10_Hash_nodeISt4pairIKmS2_IiPFiR10CallParamsEEELb0EEEEE19_M_allocate_bucketsEm
	.section	.text._ZNSt8__detail16_Hashtable_allocISaINS_10_Hash_nodeISt4pairIKmS2_IiPFiR10CallParamsEEELb0EEEEE16_M_allocate_nodeIJRKS9_EEEPSA_DpOT_,"axG",@progbits,_ZNSt8__detail16_Hashtable_allocISaINS_10_Hash_nodeISt4pairIKmS2_IiPFiR10CallParamsEEELb0EEEEE16_M_allocate_nodeIJRKS9_EEEPSA_DpOT_,comdat
	.align 2
	.weak	_ZNSt8__detail16_Hashtable_allocISaINS_10_Hash_nodeISt4pairIKmS2_IiPFiR10CallParamsEEELb0EEEEE16_M_allocate_nodeIJRKS9_EEEPSA_DpOT_
	.type	_ZNSt8__detail16_Hashtable_allocISaINS_10_Hash_nodeISt4pairIKmS2_IiPFiR10CallParamsEEELb0EEEEE16_M_allocate_nodeIJRKS9_EEEPSA_DpOT_, @function
_ZNSt8__detail16_Hashtable_allocISaINS_10_Hash_nodeISt4pairIKmS2_IiPFiR10CallParamsEEELb0EEEEE16_M_allocate_nodeIJRKS9_EEEPSA_DpOT_:
.LFB2932:
	.loc 2 2058 0
	.cfi_startproc
.LVL174:
	push	rbx
	.cfi_def_cfa_offset 16
	.cfi_offset 3, -16
	mov	rbx, rsi
.LVL175:
.LBB665:
.LBB666:
.LBB667:
	.loc 3 111 0
	mov	edi, 32
.LVL176:
	call	_Znwm@PLT
.LVL177:
.LBE667:
.LBE666:
.LBE665:
.LBB668:
.LBB669:
.LBB670:
.LBB671:
.LBB672:
	.loc 2 233 0
	mov	QWORD PTR [rax], 0
.LVL178:
.LBE672:
.LBE671:
.LBE670:
.LBE669:
.LBB673:
.LBB674:
.LBB675:
	mov	rsi, QWORD PTR [rbx]
	mov	rdi, QWORD PTR 8[rbx]
	mov	QWORD PTR 8[rax], rsi
	mov	QWORD PTR 16[rax], rdi
	mov	rdx, QWORD PTR 16[rbx]
	mov	QWORD PTR 24[rax], rdx
.LVL179:
.LBE675:
.LBE674:
.LBE673:
.LBE668:
	.loc 2 2075 0
	pop	rbx
	.cfi_def_cfa_offset 8
.LVL180:
	ret
	.cfi_endproc
.LFE2932:
	.size	_ZNSt8__detail16_Hashtable_allocISaINS_10_Hash_nodeISt4pairIKmS2_IiPFiR10CallParamsEEELb0EEEEE16_M_allocate_nodeIJRKS9_EEEPSA_DpOT_, .-_ZNSt8__detail16_Hashtable_allocISaINS_10_Hash_nodeISt4pairIKmS2_IiPFiR10CallParamsEEELb0EEEEE16_M_allocate_nodeIJRKS9_EEEPSA_DpOT_
	.section	.text._ZNSt10_HashtableImSt4pairIKmS0_IiPFiR10CallParamsEEESaIS7_ENSt8__detail10_Select1stESt8equal_toImESt4hashImENS9_18_Mod_range_hashingENS9_20_Default_ranged_hashENS9_20_Prime_rehash_policyENS9_17_Hashtable_traitsILb0ELb0ELb1EEEE22_M_insert_bucket_beginEmPNS9_10_Hash_nodeIS7_Lb0EEE,"axG",@progbits,_ZNSt10_HashtableImSt4pairIKmS0_IiPFiR10CallParamsEEESaIS7_ENSt8__detail10_Select1stESt8equal_toImESt4hashImENS9_18_Mod_range_hashingENS9_20_Default_ranged_hashENS9_20_Prime_rehash_policyENS9_17_Hashtable_traitsILb0ELb0ELb1EEEE22_M_insert_bucket_beginEmPNS9_10_Hash_nodeIS7_Lb0EEE,comdat
	.align 2
	.weak	_ZNSt10_HashtableImSt4pairIKmS0_IiPFiR10CallParamsEEESaIS7_ENSt8__detail10_Select1stESt8equal_toImESt4hashImENS9_18_Mod_range_hashingENS9_20_Default_ranged_hashENS9_20_Prime_rehash_policyENS9_17_Hashtable_traitsILb0ELb0ELb1EEEE22_M_insert_bucket_beginEmPNS9_10_Hash_nodeIS7_Lb0EEE
	.type	_ZNSt10_HashtableImSt4pairIKmS0_IiPFiR10CallParamsEEESaIS7_ENSt8__detail10_Select1stESt8equal_toImESt4hashImENS9_18_Mod_range_hashingENS9_20_Default_ranged_hashENS9_20_Prime_rehash_policyENS9_17_Hashtable_traitsILb0ELb0ELb1EEEE22_M_insert_bucket_beginEmPNS9_10_Hash_nodeIS7_Lb0EEE, @function
_ZNSt10_HashtableImSt4pairIKmS0_IiPFiR10CallParamsEEESaIS7_ENSt8__detail10_Select1stESt8equal_toImESt4hashImENS9_18_Mod_range_hashingENS9_20_Default_ranged_hashENS9_20_Prime_rehash_policyENS9_17_Hashtable_traitsILb0ELb0ELb1EEEE22_M_insert_bucket_beginEmPNS9_10_Hash_nodeIS7_Lb0EEE:
.LFB2944:
	.loc 4 1566 0
	.cfi_startproc
.LVL181:
	mov	rcx, rdx
	.loc 4 1570 0
	mov	rax, QWORD PTR [rdi]
	lea	r8, 0[0+rsi*8]
	mov	rax, QWORD PTR [rax+rsi*8]
	test	rax, rax
	je	.L88
	.loc 4 1574 0
	mov	rax, QWORD PTR [rax]
	mov	QWORD PTR [rdx], rax
	.loc 4 1575 0
	mov	rax, QWORD PTR [rdi]
	mov	rax, QWORD PTR [rax+rsi*8]
	mov	QWORD PTR [rax], rdx
	ret
.L88:
	.loc 4 1582 0
	mov	rax, QWORD PTR 16[rdi]
	mov	QWORD PTR [rdx], rax
	.loc 4 1583 0
	mov	QWORD PTR 16[rdi], rdx
	.loc 4 1584 0
	mov	rax, QWORD PTR [rdx]
	test	rax, rax
	je	.L90
.LVL182:
.LBB676:
.LBB677:
.LBB678:
.LBB679:
	.loc 2 1291 0
	mov	rax, QWORD PTR 8[rax]
.LVL183:
.LBB680:
.LBB681:
	.loc 2 448 0
	mov	edx, 0
.LVL184:
	div	QWORD PTR 8[rdi]
.LVL185:
.LBE681:
.LBE680:
.LBE679:
.LBE678:
.LBE677:
.LBE676:
	.loc 4 1587 0
	sal	rdx, 3
	add	rdx, QWORD PTR [rdi]
	mov	QWORD PTR [rdx], rcx
.L90:
	.loc 4 1588 0
	add	r8, QWORD PTR [rdi]
	add	rdi, 16
.LVL186:
	mov	QWORD PTR [r8], rdi
	.loc 4 1590 0
	ret
	.cfi_endproc
.LFE2944:
	.size	_ZNSt10_HashtableImSt4pairIKmS0_IiPFiR10CallParamsEEESaIS7_ENSt8__detail10_Select1stESt8equal_toImESt4hashImENS9_18_Mod_range_hashingENS9_20_Default_ranged_hashENS9_20_Prime_rehash_policyENS9_17_Hashtable_traitsILb0ELb0ELb1EEEE22_M_insert_bucket_beginEmPNS9_10_Hash_nodeIS7_Lb0EEE, .-_ZNSt10_HashtableImSt4pairIKmS0_IiPFiR10CallParamsEEESaIS7_ENSt8__detail10_Select1stESt8equal_toImESt4hashImENS9_18_Mod_range_hashingENS9_20_Default_ranged_hashENS9_20_Prime_rehash_policyENS9_17_Hashtable_traitsILb0ELb0ELb1EEEE22_M_insert_bucket_beginEmPNS9_10_Hash_nodeIS7_Lb0EEE
	.section	.text._ZNSt10_HashtableImSt4pairIKmS0_IiPFiR10CallParamsEEESaIS7_ENSt8__detail10_Select1stESt8equal_toImESt4hashImENS9_18_Mod_range_hashingENS9_20_Default_ranged_hashENS9_20_Prime_rehash_policyENS9_17_Hashtable_traitsILb0ELb0ELb1EEEE13_M_rehash_auxEmSt17integral_constantIbLb1EE,"axG",@progbits,_ZNSt10_HashtableImSt4pairIKmS0_IiPFiR10CallParamsEEESaIS7_ENSt8__detail10_Select1stESt8equal_toImESt4hashImENS9_18_Mod_range_hashingENS9_20_Default_ranged_hashENS9_20_Prime_rehash_policyENS9_17_Hashtable_traitsILb0ELb0ELb1EEEE13_M_rehash_auxEmSt17integral_constantIbLb1EE,comdat
	.align 2
	.weak	_ZNSt10_HashtableImSt4pairIKmS0_IiPFiR10CallParamsEEESaIS7_ENSt8__detail10_Select1stESt8equal_toImESt4hashImENS9_18_Mod_range_hashingENS9_20_Default_ranged_hashENS9_20_Prime_rehash_policyENS9_17_Hashtable_traitsILb0ELb0ELb1EEEE13_M_rehash_auxEmSt17integral_constantIbLb1EE
	.type	_ZNSt10_HashtableImSt4pairIKmS0_IiPFiR10CallParamsEEESaIS7_ENSt8__detail10_Select1stESt8equal_toImESt4hashImENS9_18_Mod_range_hashingENS9_20_Default_ranged_hashENS9_20_Prime_rehash_policyENS9_17_Hashtable_traitsILb0ELb0ELb1EEEE13_M_rehash_auxEmSt17integral_constantIbLb1EE, @function
_ZNSt10_HashtableImSt4pairIKmS0_IiPFiR10CallParamsEEESaIS7_ENSt8__detail10_Select1stESt8equal_toImESt4hashImENS9_18_Mod_range_hashingENS9_20_Default_ranged_hashENS9_20_Prime_rehash_policyENS9_17_Hashtable_traitsILb0ELb0ELb1EEEE13_M_rehash_auxEmSt17integral_constantIbLb1EE:
.LFB2959:
	.loc 4 2088 0
	.cfi_startproc
.LVL187:
	push	r12
	.cfi_def_cfa_offset 16
	.cfi_offset 12, -16
	push	rbp
	.cfi_def_cfa_offset 24
	.cfi_offset 6, -24
	push	rbx
	.cfi_def_cfa_offset 32
	.cfi_offset 3, -32
	mov	rbp, rdi
	mov	rbx, rsi
.LVL188:
.LBB682:
.LBB683:
	.loc 4 348 0
	cmp	rsi, 1
	je	.L101
	.loc 4 354 0
	call	_ZNSt8__detail16_Hashtable_allocISaINS_10_Hash_nodeISt4pairIKmS2_IiPFiR10CallParamsEEELb0EEEEE19_M_allocate_bucketsEm
.LVL189:
	mov	r12, rax
.L93:
.LVL190:
.LBE683:
.LBE682:
.LBB685:
.LBB686:
	.loc 4 377 0
	mov	rcx, QWORD PTR 16[rbp]
.LVL191:
.LBE686:
.LBE685:
	.loc 4 2094 0
	mov	QWORD PTR 16[rbp], 0
.LVL192:
	.loc 4 2095 0
	mov	r8d, 0
	jmp	.L94
.LVL193:
.L101:
.LBB687:
.LBB684:
	.loc 4 350 0
	mov	QWORD PTR 48[rdi], 0
	.loc 4 351 0
	lea	r12, 48[rdi]
	jmp	.L93
.LVL194:
.L99:
.LBE684:
.LBE687:
.LBB688:
	.loc 4 2107 0
	mov	r8, rdx
.LVL195:
	jmp	.L97
.LVL196:
.L102:
	.loc 4 2102 0
	mov	rsi, QWORD PTR 16[rbp]
	mov	QWORD PTR [rcx], rsi
	.loc 4 2103 0
	mov	QWORD PTR 16[rbp], rcx
	.loc 4 2104 0
	lea	rsi, 16[rbp]
	mov	QWORD PTR [rax], rsi
	.loc 4 2105 0
	cmp	QWORD PTR [rcx], 0
	je	.L99
	.loc 4 2106 0
	mov	QWORD PTR [r12+r8*8], rcx
	.loc 4 2107 0
	mov	r8, rdx
.LVL197:
.L97:
	mov	rcx, rdi
.LVL198:
.L94:
.LBE688:
	.loc 4 2096 0
	test	rcx, rcx
	je	.L95
.LVL199:
.LBB695:
.LBB689:
.LBB690:
	.loc 2 298 0
	mov	rdi, QWORD PTR [rcx]
.LVL200:
.LBE690:
.LBE689:
.LBB691:
.LBB692:
	.loc 2 1291 0
	mov	rax, QWORD PTR 8[rcx]
.LVL201:
.LBB693:
.LBB694:
	.loc 2 448 0
	mov	edx, 0
	div	rbx
.LVL202:
.LBE694:
.LBE693:
.LBE692:
.LBE691:
	.loc 4 2100 0
	lea	rax, [r12+rdx*8]
	mov	rsi, QWORD PTR [rax]
	test	rsi, rsi
	je	.L102
	.loc 4 2111 0
	mov	rdx, QWORD PTR [rsi]
	mov	QWORD PTR [rcx], rdx
	.loc 4 2112 0
	mov	rax, QWORD PTR [rax]
	mov	QWORD PTR [rax], rcx
	jmp	.L97
.L95:
.LVL203:
.LBE695:
.LBB696:
.LBB697:
	.loc 4 368 0
	mov	rdx, QWORD PTR 8[rbp]
	mov	rsi, QWORD PTR 0[rbp]
.LVL204:
.LBB698:
.LBB699:
.LBB700:
.LBB701:
	.loc 4 336 0
	lea	rax, 48[rbp]
.LVL205:
.LBE701:
.LBE700:
	.loc 4 360 0
	cmp	rsi, rax
	je	.L98
	.loc 4 363 0
	mov	rdi, rbp
	call	_ZNSt8__detail16_Hashtable_allocISaINS_10_Hash_nodeISt4pairIKmS2_IiPFiR10CallParamsEEELb0EEEEE21_M_deallocate_bucketsEPPNS_15_Hash_node_baseEm
.LVL206:
.L98:
.LBE699:
.LBE698:
.LBE697:
.LBE696:
	.loc 4 2118 0
	mov	QWORD PTR 8[rbp], rbx
	.loc 4 2119 0
	mov	QWORD PTR 0[rbp], r12
	.loc 4 2120 0
	pop	rbx
	.cfi_def_cfa_offset 24
.LVL207:
	pop	rbp
	.cfi_def_cfa_offset 16
.LVL208:
	pop	r12
	.cfi_def_cfa_offset 8
.LVL209:
	ret
	.cfi_endproc
.LFE2959:
	.size	_ZNSt10_HashtableImSt4pairIKmS0_IiPFiR10CallParamsEEESaIS7_ENSt8__detail10_Select1stESt8equal_toImESt4hashImENS9_18_Mod_range_hashingENS9_20_Default_ranged_hashENS9_20_Prime_rehash_policyENS9_17_Hashtable_traitsILb0ELb0ELb1EEEE13_M_rehash_auxEmSt17integral_constantIbLb1EE, .-_ZNSt10_HashtableImSt4pairIKmS0_IiPFiR10CallParamsEEESaIS7_ENSt8__detail10_Select1stESt8equal_toImESt4hashImENS9_18_Mod_range_hashingENS9_20_Default_ranged_hashENS9_20_Prime_rehash_policyENS9_17_Hashtable_traitsILb0ELb0ELb1EEEE13_M_rehash_auxEmSt17integral_constantIbLb1EE
	.section	.text._ZNSt10_HashtableImSt4pairIKmS0_IiPFiR10CallParamsEEESaIS7_ENSt8__detail10_Select1stESt8equal_toImESt4hashImENS9_18_Mod_range_hashingENS9_20_Default_ranged_hashENS9_20_Prime_rehash_policyENS9_17_Hashtable_traitsILb0ELb0ELb1EEEE9_M_rehashEmRS1_,"axG",@progbits,_ZNSt10_HashtableImSt4pairIKmS0_IiPFiR10CallParamsEEESaIS7_ENSt8__detail10_Select1stESt8equal_toImESt4hashImENS9_18_Mod_range_hashingENS9_20_Default_ranged_hashENS9_20_Prime_rehash_policyENS9_17_Hashtable_traitsILb0ELb0ELb1EEEE9_M_rehashEmRS1_,comdat
	.align 2
	.weak	_ZNSt10_HashtableImSt4pairIKmS0_IiPFiR10CallParamsEEESaIS7_ENSt8__detail10_Select1stESt8equal_toImESt4hashImENS9_18_Mod_range_hashingENS9_20_Default_ranged_hashENS9_20_Prime_rehash_policyENS9_17_Hashtable_traitsILb0ELb0ELb1EEEE9_M_rehashEmRS1_
	.type	_ZNSt10_HashtableImSt4pairIKmS0_IiPFiR10CallParamsEEESaIS7_ENSt8__detail10_Select1stESt8equal_toImESt4hashImENS9_18_Mod_range_hashingENS9_20_Default_ranged_hashENS9_20_Prime_rehash_policyENS9_17_Hashtable_traitsILb0ELb0ELb1EEEE9_M_rehashEmRS1_, @function
_ZNSt10_HashtableImSt4pairIKmS0_IiPFiR10CallParamsEEESaIS7_ENSt8__detail10_Select1stESt8equal_toImESt4hashImENS9_18_Mod_range_hashingENS9_20_Default_ranged_hashENS9_20_Prime_rehash_policyENS9_17_Hashtable_traitsILb0ELb0ELb1EEEE9_M_rehashEmRS1_:
.LFB2939:
	.loc 4 2065 0
	.cfi_startproc
	.cfi_personality 0x9b,DW.ref.__gxx_personality_v0
	.cfi_lsda 0x1b,.LLSDA2939
.LVL210:
	push	rbp
	.cfi_def_cfa_offset 16
	.cfi_offset 6, -16
	mov	rbp, rsp
	.cfi_def_cfa_register 6
	push	r14
	push	rbx
	.cfi_offset 14, -24
	.cfi_offset 3, -32
	mov	rbx, rdi
	mov	r14, rdx
	.loc 4 2071 0
	sub	rsp, 8
	push	0
.LEHB3:
	.cfi_escape 0x2e,0x10
	call	_ZNSt10_HashtableImSt4pairIKmS0_IiPFiR10CallParamsEEESaIS7_ENSt8__detail10_Select1stESt8equal_toImESt4hashImENS9_18_Mod_range_hashingENS9_20_Default_ranged_hashENS9_20_Prime_rehash_policyENS9_17_Hashtable_traitsILb0ELb0ELb1EEEE13_M_rehash_auxEmSt17integral_constantIbLb1EE
.LVL211:
.LEHE3:
	add	rsp, 16
	.loc 4 2080 0
	lea	rsp, -16[rbp]
	pop	rbx
.LVL212:
	pop	r14
.LVL213:
	pop	rbp
	.cfi_remember_state
	.cfi_def_cfa 7, 8
	ret
.LVL214:
.L106:
	.cfi_restore_state
	.loc 4 2073 0
	mov	rdi, rax
	call	__cxa_begin_catch@PLT
.LVL215:
	.loc 4 2077 0
	mov	rax, QWORD PTR [r14]
.LVL216:
.LBB702:
.LBB703:
	.loc 2 500 0
	mov	QWORD PTR 40[rbx], rax
.LVL217:
.LEHB4:
	.cfi_escape 0x2e,0
.LBE703:
.LBE702:
	.loc 4 2078 0
	call	__cxa_rethrow@PLT
.LVL218:
.LEHE4:
.L107:
	mov	rbx, rax
.LVL219:
	.loc 4 2073 0
	call	__cxa_end_catch@PLT
.LVL220:
	mov	rdi, rbx
.LEHB5:
	call	_Unwind_Resume@PLT
.LVL221:
.LEHE5:
	.cfi_endproc
.LFE2939:
	.section	.gcc_except_table
	.align 4
.LLSDA2939:
	.byte	0xff
	.byte	0x9b
	.uleb128 .LLSDATT2939-.LLSDATTD2939
.LLSDATTD2939:
	.byte	0x1
	.uleb128 .LLSDACSE2939-.LLSDACSB2939
.LLSDACSB2939:
	.uleb128 .LEHB3-.LFB2939
	.uleb128 .LEHE3-.LEHB3
	.uleb128 .L106-.LFB2939
	.uleb128 0x1
	.uleb128 .LEHB4-.LFB2939
	.uleb128 .LEHE4-.LEHB4
	.uleb128 .L107-.LFB2939
	.uleb128 0
	.uleb128 .LEHB5-.LFB2939
	.uleb128 .LEHE5-.LEHB5
	.uleb128 0
	.uleb128 0
.LLSDACSE2939:
	.byte	0x1
	.byte	0
	.align 4
	.long	0

.LLSDATT2939:
	.section	.text._ZNSt10_HashtableImSt4pairIKmS0_IiPFiR10CallParamsEEESaIS7_ENSt8__detail10_Select1stESt8equal_toImESt4hashImENS9_18_Mod_range_hashingENS9_20_Default_ranged_hashENS9_20_Prime_rehash_policyENS9_17_Hashtable_traitsILb0ELb0ELb1EEEE9_M_rehashEmRS1_,"axG",@progbits,_ZNSt10_HashtableImSt4pairIKmS0_IiPFiR10CallParamsEEESaIS7_ENSt8__detail10_Select1stESt8equal_toImESt4hashImENS9_18_Mod_range_hashingENS9_20_Default_ranged_hashENS9_20_Prime_rehash_policyENS9_17_Hashtable_traitsILb0ELb0ELb1EEEE9_M_rehashEmRS1_,comdat
	.size	_ZNSt10_HashtableImSt4pairIKmS0_IiPFiR10CallParamsEEESaIS7_ENSt8__detail10_Select1stESt8equal_toImESt4hashImENS9_18_Mod_range_hashingENS9_20_Default_ranged_hashENS9_20_Prime_rehash_policyENS9_17_Hashtable_traitsILb0ELb0ELb1EEEE9_M_rehashEmRS1_, .-_ZNSt10_HashtableImSt4pairIKmS0_IiPFiR10CallParamsEEESaIS7_ENSt8__detail10_Select1stESt8equal_toImESt4hashImENS9_18_Mod_range_hashingENS9_20_Default_ranged_hashENS9_20_Prime_rehash_policyENS9_17_Hashtable_traitsILb0ELb0ELb1EEEE9_M_rehashEmRS1_
	.section	.text._ZNSt10_HashtableImSt4pairIKmS0_IiPFiR10CallParamsEEESaIS7_ENSt8__detail10_Select1stESt8equal_toImESt4hashImENS9_18_Mod_range_hashingENS9_20_Default_ranged_hashENS9_20_Prime_rehash_policyENS9_17_Hashtable_traitsILb0ELb0ELb1EEEE21_M_insert_unique_nodeEmmPNS9_10_Hash_nodeIS7_Lb0EEE,"axG",@progbits,_ZNSt10_HashtableImSt4pairIKmS0_IiPFiR10CallParamsEEESaIS7_ENSt8__detail10_Select1stESt8equal_toImESt4hashImENS9_18_Mod_range_hashingENS9_20_Default_ranged_hashENS9_20_Prime_rehash_policyENS9_17_Hashtable_traitsILb0ELb0ELb1EEEE21_M_insert_unique_nodeEmmPNS9_10_Hash_nodeIS7_Lb0EEE,comdat
	.align 2
	.weak	_ZNSt10_HashtableImSt4pairIKmS0_IiPFiR10CallParamsEEESaIS7_ENSt8__detail10_Select1stESt8equal_toImESt4hashImENS9_18_Mod_range_hashingENS9_20_Default_ranged_hashENS9_20_Prime_rehash_policyENS9_17_Hashtable_traitsILb0ELb0ELb1EEEE21_M_insert_unique_nodeEmmPNS9_10_Hash_nodeIS7_Lb0EEE
	.type	_ZNSt10_HashtableImSt4pairIKmS0_IiPFiR10CallParamsEEESaIS7_ENSt8__detail10_Select1stESt8equal_toImESt4hashImENS9_18_Mod_range_hashingENS9_20_Default_ranged_hashENS9_20_Prime_rehash_policyENS9_17_Hashtable_traitsILb0ELb0ELb1EEEE21_M_insert_unique_nodeEmmPNS9_10_Hash_nodeIS7_Lb0EEE, @function
_ZNSt10_HashtableImSt4pairIKmS0_IiPFiR10CallParamsEEESaIS7_ENSt8__detail10_Select1stESt8equal_toImESt4hashImENS9_18_Mod_range_hashingENS9_20_Default_ranged_hashENS9_20_Prime_rehash_policyENS9_17_Hashtable_traitsILb0ELb0ELb1EEEE21_M_insert_unique_nodeEmmPNS9_10_Hash_nodeIS7_Lb0EEE:
.LFB2879:
	.loc 4 1704 0
	.cfi_startproc
	.cfi_personality 0x9b,DW.ref.__gxx_personality_v0
	.cfi_lsda 0x1b,.LLSDA2879
.LVL222:
	push	r13
	.cfi_def_cfa_offset 16
	.cfi_offset 13, -16
	push	r12
	.cfi_def_cfa_offset 24
	.cfi_offset 12, -24
	push	rbp
	.cfi_def_cfa_offset 32
	.cfi_offset 6, -32
	push	rbx
	.cfi_def_cfa_offset 40
	.cfi_offset 3, -40
	sub	rsp, 24
	.cfi_def_cfa_offset 64
	mov	rbx, rdi
	mov	r13, rsi
	mov	r12, rdx
	mov	rbp, rcx
	.loc 4 1704 0
	mov	rax, QWORD PTR fs:40
	mov	QWORD PTR 8[rsp], rax
	xor	eax, eax
.LVL223:
.LBB704:
.LBB705:
	.loc 2 492 0
	mov	rax, QWORD PTR 40[rdi]
.LVL224:
.LBE705:
.LBE704:
	.loc 4 1710 0
	mov	QWORD PTR [rsp], rax
.LVL225:
	.loc 4 1711 0
	mov	rdx, QWORD PTR 24[rdi]
.LVL226:
	mov	rsi, QWORD PTR 8[rdi]
.LVL227:
	lea	rdi, 32[rdi]
.LVL228:
	mov	ecx, 1
.LVL229:
.LEHB6:
	call	_ZNKSt8__detail20_Prime_rehash_policy14_M_need_rehashEmmm@PLT
.LVL230:
.LEHE6:
	.loc 4 1716 0
	test	al, al
	je	.L111
	mov	rsi, rdx
	.loc 4 1718 0
	mov	rdx, rsp
	mov	rdi, rbx
.LEHB7:
	call	_ZNSt10_HashtableImSt4pairIKmS0_IiPFiR10CallParamsEEESaIS7_ENSt8__detail10_Select1stESt8equal_toImESt4hashImENS9_18_Mod_range_hashingENS9_20_Default_ranged_hashENS9_20_Prime_rehash_policyENS9_17_Hashtable_traitsILb0ELb0ELb1EEEE9_M_rehashEmRS1_
.LVL231:
.LEHE7:
.LBB706:
.LBB707:
.LBB708:
.LBB709:
.LBB710:
	.loc 2 448 0
	mov	rax, r12
	mov	edx, 0
	div	QWORD PTR 8[rbx]
	mov	r13, rdx
.LVL232:
.L111:
.LBE710:
.LBE709:
.LBE708:
.LBE707:
.LBE706:
	.loc 4 1725 0
	mov	rdx, rbp
	mov	rsi, r13
	mov	rdi, rbx
	call	_ZNSt10_HashtableImSt4pairIKmS0_IiPFiR10CallParamsEEESaIS7_ENSt8__detail10_Select1stESt8equal_toImESt4hashImENS9_18_Mod_range_hashingENS9_20_Default_ranged_hashENS9_20_Prime_rehash_policyENS9_17_Hashtable_traitsILb0ELb0ELb1EEEE22_M_insert_bucket_beginEmPNS9_10_Hash_nodeIS7_Lb0EEE
.LVL233:
	.loc 4 1726 0
	mov	rax, QWORD PTR 24[rbx]
	add	rax, 1
	mov	QWORD PTR 24[rbx], rax
	.loc 4 1734 0
	mov	rax, rbp
	mov	rcx, QWORD PTR 8[rsp]
	xor	rcx, QWORD PTR fs:40
	jne	.L119
.LVL234:
	add	rsp, 24
	.cfi_remember_state
	.cfi_def_cfa_offset 40
.LVL235:
	pop	rbx
	.cfi_def_cfa_offset 32
.LVL236:
	pop	rbp
	.cfi_def_cfa_offset 24
	pop	r12
	.cfi_def_cfa_offset 16
.LVL237:
	pop	r13
	.cfi_def_cfa_offset 8
.LVL238:
	ret
.LVL239:
.L115:
	.cfi_restore_state
	.loc 4 1729 0
	mov	rdi, rax
	call	__cxa_begin_catch@PLT
.LVL240:
	.loc 4 1731 0
	mov	rsi, rbp
	mov	rdi, rbx
	call	_ZNSt8__detail16_Hashtable_allocISaINS_10_Hash_nodeISt4pairIKmS2_IiPFiR10CallParamsEEELb0EEEEE18_M_deallocate_nodeEPSA_
.LVL241:
.LEHB8:
	.loc 4 1732 0
	call	__cxa_rethrow@PLT
.LVL242:
.LEHE8:
.L116:
	mov	rbx, rax
.LVL243:
	.loc 4 1729 0
	call	__cxa_end_catch@PLT
.LVL244:
	mov	rdi, rbx
.LEHB9:
	call	_Unwind_Resume@PLT
.LVL245:
.LEHE9:
.L119:
	.loc 4 1734 0
	call	__stack_chk_fail@PLT
.LVL246:
	.cfi_endproc
.LFE2879:
	.section	.gcc_except_table
	.align 4
.LLSDA2879:
	.byte	0xff
	.byte	0x9b
	.uleb128 .LLSDATT2879-.LLSDATTD2879
.LLSDATTD2879:
	.byte	0x1
	.uleb128 .LLSDACSE2879-.LLSDACSB2879
.LLSDACSB2879:
	.uleb128 .LEHB6-.LFB2879
	.uleb128 .LEHE6-.LEHB6
	.uleb128 0
	.uleb128 0
	.uleb128 .LEHB7-.LFB2879
	.uleb128 .LEHE7-.LEHB7
	.uleb128 .L115-.LFB2879
	.uleb128 0x1
	.uleb128 .LEHB8-.LFB2879
	.uleb128 .LEHE8-.LEHB8
	.uleb128 .L116-.LFB2879
	.uleb128 0
	.uleb128 .LEHB9-.LFB2879
	.uleb128 .LEHE9-.LEHB9
	.uleb128 0
	.uleb128 0
.LLSDACSE2879:
	.byte	0x1
	.byte	0
	.align 4
	.long	0

.LLSDATT2879:
	.section	.text._ZNSt10_HashtableImSt4pairIKmS0_IiPFiR10CallParamsEEESaIS7_ENSt8__detail10_Select1stESt8equal_toImESt4hashImENS9_18_Mod_range_hashingENS9_20_Default_ranged_hashENS9_20_Prime_rehash_policyENS9_17_Hashtable_traitsILb0ELb0ELb1EEEE21_M_insert_unique_nodeEmmPNS9_10_Hash_nodeIS7_Lb0EEE,"axG",@progbits,_ZNSt10_HashtableImSt4pairIKmS0_IiPFiR10CallParamsEEESaIS7_ENSt8__detail10_Select1stESt8equal_toImESt4hashImENS9_18_Mod_range_hashingENS9_20_Default_ranged_hashENS9_20_Prime_rehash_policyENS9_17_Hashtable_traitsILb0ELb0ELb1EEEE21_M_insert_unique_nodeEmmPNS9_10_Hash_nodeIS7_Lb0EEE,comdat
	.size	_ZNSt10_HashtableImSt4pairIKmS0_IiPFiR10CallParamsEEESaIS7_ENSt8__detail10_Select1stESt8equal_toImESt4hashImENS9_18_Mod_range_hashingENS9_20_Default_ranged_hashENS9_20_Prime_rehash_policyENS9_17_Hashtable_traitsILb0ELb0ELb1EEEE21_M_insert_unique_nodeEmmPNS9_10_Hash_nodeIS7_Lb0EEE, .-_ZNSt10_HashtableImSt4pairIKmS0_IiPFiR10CallParamsEEESaIS7_ENSt8__detail10_Select1stESt8equal_toImESt4hashImENS9_18_Mod_range_hashingENS9_20_Default_ranged_hashENS9_20_Prime_rehash_policyENS9_17_Hashtable_traitsILb0ELb0ELb1EEEE21_M_insert_unique_nodeEmmPNS9_10_Hash_nodeIS7_Lb0EEE
	.section	.text._ZNSt10_HashtableImSt4pairIKmS0_IiPFiR10CallParamsEEESaIS7_ENSt8__detail10_Select1stESt8equal_toImESt4hashImENS9_18_Mod_range_hashingENS9_20_Default_ranged_hashENS9_20_Prime_rehash_policyENS9_17_Hashtable_traitsILb0ELb0ELb1EEEE9_M_insertIRKS7_NS9_10_AllocNodeISaINS9_10_Hash_nodeIS7_Lb0EEEEEEEES0_INS9_14_Node_iteratorIS7_Lb0ELb0EEEbEOT_RKT0_St17integral_constantIbLb1EE,"axG",@progbits,_ZNSt10_HashtableImSt4pairIKmS0_IiPFiR10CallParamsEEESaIS7_ENSt8__detail10_Select1stESt8equal_toImESt4hashImENS9_18_Mod_range_hashingENS9_20_Default_ranged_hashENS9_20_Prime_rehash_policyENS9_17_Hashtable_traitsILb0ELb0ELb1EEEE9_M_insertIRKS7_NS9_10_AllocNodeISaINS9_10_Hash_nodeIS7_Lb0EEEEEEEES0_INS9_14_Node_iteratorIS7_Lb0ELb0EEEbEOT_RKT0_St17integral_constantIbLb1EE,comdat
	.align 2
	.weak	_ZNSt10_HashtableImSt4pairIKmS0_IiPFiR10CallParamsEEESaIS7_ENSt8__detail10_Select1stESt8equal_toImESt4hashImENS9_18_Mod_range_hashingENS9_20_Default_ranged_hashENS9_20_Prime_rehash_policyENS9_17_Hashtable_traitsILb0ELb0ELb1EEEE9_M_insertIRKS7_NS9_10_AllocNodeISaINS9_10_Hash_nodeIS7_Lb0EEEEEEEES0_INS9_14_Node_iteratorIS7_Lb0ELb0EEEbEOT_RKT0_St17integral_constantIbLb1EE
	.type	_ZNSt10_HashtableImSt4pairIKmS0_IiPFiR10CallParamsEEESaIS7_ENSt8__detail10_Select1stESt8equal_toImESt4hashImENS9_18_Mod_range_hashingENS9_20_Default_ranged_hashENS9_20_Prime_rehash_policyENS9_17_Hashtable_traitsILb0ELb0ELb1EEEE9_M_insertIRKS7_NS9_10_AllocNodeISaINS9_10_Hash_nodeIS7_Lb0EEEEEEEES0_INS9_14_Node_iteratorIS7_Lb0ELb0EEEbEOT_RKT0_St17integral_constantIbLb1EE, @function
_ZNSt10_HashtableImSt4pairIKmS0_IiPFiR10CallParamsEEESaIS7_ENSt8__detail10_Select1stESt8equal_toImESt4hashImENS9_18_Mod_range_hashingENS9_20_Default_ranged_hashENS9_20_Prime_rehash_policyENS9_17_Hashtable_traitsILb0ELb0ELb1EEEE9_M_insertIRKS7_NS9_10_AllocNodeISaINS9_10_Hash_nodeIS7_Lb0EEEEEEEES0_INS9_14_Node_iteratorIS7_Lb0ELb0EEEbEOT_RKT0_St17integral_constantIbLb1EE:
.LFB2801:
	.loc 4 1808 0
	.cfi_startproc
.LVL247:
	push	r14
	.cfi_def_cfa_offset 16
	.cfi_offset 14, -16
	push	r13
	.cfi_def_cfa_offset 24
	.cfi_offset 13, -24
	push	r12
	.cfi_def_cfa_offset 32
	.cfi_offset 12, -32
	push	rbp
	.cfi_def_cfa_offset 40
	.cfi_offset 6, -40
	push	rbx
	.cfi_def_cfa_offset 48
	.cfi_offset 3, -48
	mov	rbx, rdi
	mov	r12, rsi
	mov	r14, rdx
.LVL248:
.LBB711:
.LBB712:
	.loc 2 1280 0
	mov	rbp, QWORD PTR [rsi]
.LVL249:
.LBE712:
.LBE711:
.LBB713:
.LBB714:
.LBB715:
.LBB716:
.LBB717:
	.loc 2 448 0
	mov	rax, rbp
	mov	edx, 0
.LVL250:
	div	QWORD PTR 8[rdi]
	mov	r13, rdx
.LVL251:
.LBE717:
.LBE716:
.LBE715:
.LBE714:
.LBE713:
.LBB718:
.LBB719:
	.loc 4 642 0
	mov	rcx, rbp
	mov	rdx, rsi
.LVL252:
	mov	rsi, r13
.LVL253:
	call	_ZNKSt10_HashtableImSt4pairIKmS0_IiPFiR10CallParamsEEESaIS7_ENSt8__detail10_Select1stESt8equal_toImESt4hashImENS9_18_Mod_range_hashingENS9_20_Default_ranged_hashENS9_20_Prime_rehash_policyENS9_17_Hashtable_traitsILb0ELb0ELb1EEEE19_M_find_before_nodeEmRS1_m
.LVL254:
	.loc 4 643 0
	test	rax, rax
	je	.L121
	.loc 4 644 0
	mov	rax, QWORD PTR [rax]
.LVL255:
.LBE719:
.LBE718:
	.loc 4 1818 0
	test	rax, rax
	je	.L121
.LVL256:
	mov	edx, 0
.LVL257:
.L122:
	.loc 4 1823 0
	pop	rbx
	.cfi_remember_state
	.cfi_def_cfa_offset 40
.LVL258:
	pop	rbp
	.cfi_def_cfa_offset 32
.LVL259:
	pop	r12
	.cfi_def_cfa_offset 24
.LVL260:
	pop	r13
	.cfi_def_cfa_offset 16
.LVL261:
	pop	r14
	.cfi_def_cfa_offset 8
.LVL262:
	ret
.LVL263:
.L121:
	.cfi_restore_state
.LBB720:
.LBB721:
	.loc 2 182 0
	mov	rdi, QWORD PTR [r14]
	mov	rsi, r12
	call	_ZNSt8__detail16_Hashtable_allocISaINS_10_Hash_nodeISt4pairIKmS2_IiPFiR10CallParamsEEELb0EEEEE16_M_allocate_nodeIJRKS9_EEEPSA_DpOT_
.LVL264:
.LBE721:
.LBE720:
	.loc 4 1822 0
	mov	rcx, rax
	mov	rdx, rbp
	mov	rsi, r13
	mov	rdi, rbx
	call	_ZNSt10_HashtableImSt4pairIKmS0_IiPFiR10CallParamsEEESaIS7_ENSt8__detail10_Select1stESt8equal_toImESt4hashImENS9_18_Mod_range_hashingENS9_20_Default_ranged_hashENS9_20_Prime_rehash_policyENS9_17_Hashtable_traitsILb0ELb0ELb1EEEE21_M_insert_unique_nodeEmmPNS9_10_Hash_nodeIS7_Lb0EEE
.LVL265:
	mov	edx, 1
.LVL266:
	jmp	.L122
	.cfi_endproc
.LFE2801:
	.size	_ZNSt10_HashtableImSt4pairIKmS0_IiPFiR10CallParamsEEESaIS7_ENSt8__detail10_Select1stESt8equal_toImESt4hashImENS9_18_Mod_range_hashingENS9_20_Default_ranged_hashENS9_20_Prime_rehash_policyENS9_17_Hashtable_traitsILb0ELb0ELb1EEEE9_M_insertIRKS7_NS9_10_AllocNodeISaINS9_10_Hash_nodeIS7_Lb0EEEEEEEES0_INS9_14_Node_iteratorIS7_Lb0ELb0EEEbEOT_RKT0_St17integral_constantIbLb1EE, .-_ZNSt10_HashtableImSt4pairIKmS0_IiPFiR10CallParamsEEESaIS7_ENSt8__detail10_Select1stESt8equal_toImESt4hashImENS9_18_Mod_range_hashingENS9_20_Default_ranged_hashENS9_20_Prime_rehash_policyENS9_17_Hashtable_traitsILb0ELb0ELb1EEEE9_M_insertIRKS7_NS9_10_AllocNodeISaINS9_10_Hash_nodeIS7_Lb0EEEEEEEES0_INS9_14_Node_iteratorIS7_Lb0ELb0EEEbEOT_RKT0_St17integral_constantIbLb1EE
	.section	.text._ZNSt10_HashtableImSt4pairIKmS0_IiPFiR10CallParamsEEESaIS7_ENSt8__detail10_Select1stESt8equal_toImESt4hashImENS9_18_Mod_range_hashingENS9_20_Default_ranged_hashENS9_20_Prime_rehash_policyENS9_17_Hashtable_traitsILb0ELb0ELb1EEEEC2IPKS7_EET_SO_mRKSE_RKSF_RKSG_RKSC_RKSA_RKS8_,"axG",@progbits,_ZNSt10_HashtableImSt4pairIKmS0_IiPFiR10CallParamsEEESaIS7_ENSt8__detail10_Select1stESt8equal_toImESt4hashImENS9_18_Mod_range_hashingENS9_20_Default_ranged_hashENS9_20_Prime_rehash_policyENS9_17_Hashtable_traitsILb0ELb0ELb1EEEEC5IPKS7_EET_SO_mRKSE_RKSF_RKSG_RKSC_RKSA_RKS8_,comdat
	.align 2
	.weak	_ZNSt10_HashtableImSt4pairIKmS0_IiPFiR10CallParamsEEESaIS7_ENSt8__detail10_Select1stESt8equal_toImESt4hashImENS9_18_Mod_range_hashingENS9_20_Default_ranged_hashENS9_20_Prime_rehash_policyENS9_17_Hashtable_traitsILb0ELb0ELb1EEEEC2IPKS7_EET_SO_mRKSE_RKSF_RKSG_RKSC_RKSA_RKS8_
	.type	_ZNSt10_HashtableImSt4pairIKmS0_IiPFiR10CallParamsEEESaIS7_ENSt8__detail10_Select1stESt8equal_toImESt4hashImENS9_18_Mod_range_hashingENS9_20_Default_ranged_hashENS9_20_Prime_rehash_policyENS9_17_Hashtable_traitsILb0ELb0ELb1EEEEC2IPKS7_EET_SO_mRKSE_RKSF_RKSG_RKSC_RKSA_RKS8_, @function
_ZNSt10_HashtableImSt4pairIKmS0_IiPFiR10CallParamsEEESaIS7_ENSt8__detail10_Select1stESt8equal_toImESt4hashImENS9_18_Mod_range_hashingENS9_20_Default_ranged_hashENS9_20_Prime_rehash_policyENS9_17_Hashtable_traitsILb0ELb0ELb1EEEEC2IPKS7_EET_SO_mRKSE_RKSF_RKSG_RKSC_RKSA_RKS8_:
.LFB2666:
	.loc 4 955 0
	.cfi_startproc
	.cfi_personality 0x9b,DW.ref.__gxx_personality_v0
	.cfi_lsda 0x1b,.LLSDA2666
.LVL267:
	push	rbp
	.cfi_def_cfa_offset 16
	.cfi_offset 6, -16
	mov	rbp, rsp
	.cfi_def_cfa_register 6
	push	r15
	push	r14
	push	r13
	push	r12
	push	rbx
	sub	rsp, 56
	.cfi_offset 15, -24
	.cfi_offset 14, -32
	.cfi_offset 13, -40
	.cfi_offset 12, -48
	.cfi_offset 3, -56
	mov	r15, rdi
	mov	rbx, rsi
	mov	r12, rdx
	mov	QWORD PTR -72[rbp], rcx
	.loc 4 955 0
	mov	rsi, QWORD PTR fs:40
	mov	QWORD PTR -56[rbp], rsi
	xor	esi, esi
.LVL268:
.LBB722:
.LBB723:
.LBB724:
	.loc 4 396 0
	lea	r13, 48[rdi]
	mov	QWORD PTR [rdi], r13
	mov	QWORD PTR 8[rdi], 1
.LVL269:
.LBB725:
.LBB726:
	.loc 2 233 0
	mov	QWORD PTR 16[rdi], 0
.LVL270:
.LBE726:
.LBE725:
	.loc 4 396 0
	mov	QWORD PTR 24[rdi], 0
.LVL271:
.LBB727:
.LBB728:
	.loc 2 465 0
	mov	DWORD PTR 32[rdi], 0x3f800000
	mov	QWORD PTR 40[rdi], 0
.LVL272:
.LBE728:
.LBE727:
	.loc 4 396 0
	mov	QWORD PTR 48[rdi], 0
.LVL273:
.LBE724:
.LBE723:
.LBB729:
.LBB730:
.LBB731:
.LBB732:
.LBB733:
.LBB734:
.LBB735:
	.file 8 "/usr/include/c++/7/bits/stl_iterator_base_funcs.h"
	.loc 8 104 0
	mov	rax, rdx
	sub	rax, rbx
	sar	rax, 3
	movabs	rdx, -6148914691236517205
.LVL274:
	imul	rax, rdx
.LVL275:
.LBE735:
.LBE734:
.LBE733:
.LBE732:
.LBE731:
.LBE730:
	.loc 4 965 0
	lea	rdi, 32[rdi]
.LVL276:
.LBB736:
.LBB737:
	.loc 2 478 0
	mov	QWORD PTR -88[rbp], rax
	fild	QWORD PTR -88[rbp]
	test	rax, rax
	js	.L139
.L125:
	fstp	QWORD PTR -80[rbp]
	movsd	xmm0, QWORD PTR -80[rbp]
	ucomisd	xmm0, QWORD PTR .LC4[rip]
	jnb	.L126
	cvttsd2si	rax, xmm0
.LVL277:
.L127:
.LBE737:
.LBE736:
	.loc 4 967 0
	mov	QWORD PTR -64[rbp], rax
.LVL278:
.LBB739:
.LBB740:
	.file 9 "/usr/include/c++/7/bits/stl_algobase.h"
	.loc 9 224 0
	cmp	QWORD PTR -72[rbp], rax
	jbe	.L136
	.loc 9 225 0
	lea	rax, -72[rbp]
.LVL279:
.L128:
.LBE740:
.LBE739:
	.loc 4 965 0
	mov	rsi, QWORD PTR [rax]
.LEHB10:
	call	_ZNKSt8__detail20_Prime_rehash_policy11_M_next_bktEm@PLT
.LVL280:
	jmp	.L140
.LVL281:
.L139:
.LBB742:
.LBB738:
	.loc 2 478 0
	fadd	DWORD PTR .LC3[rip]
	jmp	.L125
.L126:
	subsd	xmm0, QWORD PTR .LC4[rip]
	cvttsd2si	rax, xmm0
.LVL282:
	movabs	rdx, -9223372036854775808
	xor	rax, rdx
	jmp	.L127
.LVL283:
.L136:
.LBE738:
.LBE742:
.LBB743:
.LBB741:
	.loc 9 226 0
	lea	rax, -64[rbp]
	jmp	.L128
.LVL284:
.L140:
.LBE741:
.LBE743:
	.loc 4 965 0
	mov	r14, rax
.LVL285:
	.loc 4 970 0
	cmp	QWORD PTR 8[r15], r14
	jnb	.L133
.LVL286:
.LBB744:
.LBB745:
	.loc 4 348 0
	cmp	r14, 1
	je	.L141
	.loc 4 354 0
	mov	rsi, r14
	mov	rdi, r15
	call	_ZNSt8__detail16_Hashtable_allocISaINS_10_Hash_nodeISt4pairIKmS2_IiPFiR10CallParamsEEELb0EEEEE19_M_allocate_bucketsEm
.LVL287:
	jmp	.L142
.LVL288:
.L141:
	.loc 4 350 0
	mov	QWORD PTR 48[r15], 0
	jmp	.L131
.LVL289:
.L142:
	.loc 4 354 0
	mov	r13, rax
.L131:
.LVL290:
.LBE745:
.LBE744:
	.loc 4 972 0
	mov	QWORD PTR [r15], r13
	.loc 4 973 0
	mov	QWORD PTR 8[r15], r14
	jmp	.L133
.LVL291:
.L143:
.LBB746:
.LBB747:
	.loc 2 843 0
	add	rsp, 16
.LVL292:
.LBE747:
.LBE746:
	.loc 4 976 0
	add	rbx, 24
.LVL293:
.L133:
	.loc 4 976 0 is_stmt 0 discriminator 1
	cmp	rbx, r12
	je	.L124
.LVL294:
.LBB752:
.LBB751:
.LBB748:
.LBB749:
.LBB750:
	.loc 2 177 0 is_stmt 1
	mov	rdi, r15
	mov	QWORD PTR -64[rbp], r15
.LVL295:
.LBE750:
.LBE749:
.LBE748:
	.loc 2 843 0
	lea	rdx, -64[rbp]
	sub	rsp, 8
	push	0
	mov	rsi, rbx
	.cfi_escape 0x2e,0x10
	call	_ZNSt10_HashtableImSt4pairIKmS0_IiPFiR10CallParamsEEESaIS7_ENSt8__detail10_Select1stESt8equal_toImESt4hashImENS9_18_Mod_range_hashingENS9_20_Default_ranged_hashENS9_20_Prime_rehash_policyENS9_17_Hashtable_traitsILb0ELb0ELb1EEEE9_M_insertIRKS7_NS9_10_AllocNodeISaINS9_10_Hash_nodeIS7_Lb0EEEEEEEES0_INS9_14_Node_iteratorIS7_Lb0ELb0EEEbEOT_RKT0_St17integral_constantIbLb1EE
.LVL296:
.LEHE10:
	jmp	.L143
.LVL297:
.L137:
	mov	rbx, rax
.LVL298:
.LBE751:
.LBE752:
.LBE729:
	.loc 4 962 0
	mov	rdi, r15
	call	_ZNSt10_HashtableImSt4pairIKmS0_IiPFiR10CallParamsEEESaIS7_ENSt8__detail10_Select1stESt8equal_toImESt4hashImENS9_18_Mod_range_hashingENS9_20_Default_ranged_hashENS9_20_Prime_rehash_policyENS9_17_Hashtable_traitsILb0ELb0ELb1EEEED1Ev
.LVL299:
	mov	rdi, rbx
.LEHB11:
	call	_Unwind_Resume@PLT
.LVL300:
.LEHE11:
.L124:
.LBE722:
	.loc 4 978 0
	mov	rax, QWORD PTR -56[rbp]
	xor	rax, QWORD PTR fs:40
	jne	.L144
	lea	rsp, -40[rbp]
	pop	rbx
.LVL301:
	pop	r12
.LVL302:
	pop	r13
	pop	r14
.LVL303:
	pop	r15
.LVL304:
	pop	rbp
	.cfi_remember_state
	.cfi_def_cfa 7, 8
	ret
.LVL305:
.L144:
	.cfi_restore_state
	call	__stack_chk_fail@PLT
.LVL306:
	.cfi_endproc
.LFE2666:
	.section	.gcc_except_table
.LLSDA2666:
	.byte	0xff
	.byte	0xff
	.byte	0x1
	.uleb128 .LLSDACSE2666-.LLSDACSB2666
.LLSDACSB2666:
	.uleb128 .LEHB10-.LFB2666
	.uleb128 .LEHE10-.LEHB10
	.uleb128 .L137-.LFB2666
	.uleb128 0
	.uleb128 .LEHB11-.LFB2666
	.uleb128 .LEHE11-.LEHB11
	.uleb128 0
	.uleb128 0
.LLSDACSE2666:
	.section	.text._ZNSt10_HashtableImSt4pairIKmS0_IiPFiR10CallParamsEEESaIS7_ENSt8__detail10_Select1stESt8equal_toImESt4hashImENS9_18_Mod_range_hashingENS9_20_Default_ranged_hashENS9_20_Prime_rehash_policyENS9_17_Hashtable_traitsILb0ELb0ELb1EEEEC2IPKS7_EET_SO_mRKSE_RKSF_RKSG_RKSC_RKSA_RKS8_,"axG",@progbits,_ZNSt10_HashtableImSt4pairIKmS0_IiPFiR10CallParamsEEESaIS7_ENSt8__detail10_Select1stESt8equal_toImESt4hashImENS9_18_Mod_range_hashingENS9_20_Default_ranged_hashENS9_20_Prime_rehash_policyENS9_17_Hashtable_traitsILb0ELb0ELb1EEEEC5IPKS7_EET_SO_mRKSE_RKSF_RKSG_RKSC_RKSA_RKS8_,comdat
	.size	_ZNSt10_HashtableImSt4pairIKmS0_IiPFiR10CallParamsEEESaIS7_ENSt8__detail10_Select1stESt8equal_toImESt4hashImENS9_18_Mod_range_hashingENS9_20_Default_ranged_hashENS9_20_Prime_rehash_policyENS9_17_Hashtable_traitsILb0ELb0ELb1EEEEC2IPKS7_EET_SO_mRKSE_RKSF_RKSG_RKSC_RKSA_RKS8_, .-_ZNSt10_HashtableImSt4pairIKmS0_IiPFiR10CallParamsEEESaIS7_ENSt8__detail10_Select1stESt8equal_toImESt4hashImENS9_18_Mod_range_hashingENS9_20_Default_ranged_hashENS9_20_Prime_rehash_policyENS9_17_Hashtable_traitsILb0ELb0ELb1EEEEC2IPKS7_EET_SO_mRKSE_RKSF_RKSG_RKSC_RKSA_RKS8_
	.weak	_ZNSt10_HashtableImSt4pairIKmS0_IiPFiR10CallParamsEEESaIS7_ENSt8__detail10_Select1stESt8equal_toImESt4hashImENS9_18_Mod_range_hashingENS9_20_Default_ranged_hashENS9_20_Prime_rehash_policyENS9_17_Hashtable_traitsILb0ELb0ELb1EEEEC1IPKS7_EET_SO_mRKSE_RKSF_RKSG_RKSC_RKSA_RKS8_
	.set	_ZNSt10_HashtableImSt4pairIKmS0_IiPFiR10CallParamsEEESaIS7_ENSt8__detail10_Select1stESt8equal_toImESt4hashImENS9_18_Mod_range_hashingENS9_20_Default_ranged_hashENS9_20_Prime_rehash_policyENS9_17_Hashtable_traitsILb0ELb0ELb1EEEEC1IPKS7_EET_SO_mRKSE_RKSF_RKSG_RKSC_RKSA_RKS8_,_ZNSt10_HashtableImSt4pairIKmS0_IiPFiR10CallParamsEEESaIS7_ENSt8__detail10_Select1stESt8equal_toImESt4hashImENS9_18_Mod_range_hashingENS9_20_Default_ranged_hashENS9_20_Prime_rehash_policyENS9_17_Hashtable_traitsILb0ELb0ELb1EEEEC2IPKS7_EET_SO_mRKSE_RKSF_RKSG_RKSC_RKSA_RKS8_
	.text
	.type	_Z41__static_initialization_and_destruction_0ii, @function
_Z41__static_initialization_and_destruction_0ii:
.LFB2970:
	.loc 1 117 0
	.cfi_startproc
.LVL307:
	sub	rsp, 24
	.cfi_def_cfa_offset 32
	.loc 1 117 0
	mov	rax, QWORD PTR fs:40
	mov	QWORD PTR 8[rsp], rax
	xor	eax, eax
	cmp	edi, 1
	je	.L149
.LVL308:
.L145:
	mov	rax, QWORD PTR 8[rsp]
	xor	rax, QWORD PTR fs:40
	jne	.L150
	add	rsp, 24
	.cfi_remember_state
	.cfi_def_cfa_offset 8
	ret
.LVL309:
.L149:
	.cfi_restore_state
	.loc 1 117 0 is_stmt 0 discriminator 1
	cmp	esi, 65535
	jne	.L145
.LVL310:
.LBB772:
.LBB773:
.LBB774:
.LBB775:
	.loc 4 453 0 is_stmt 1
	lea	rax, 4[rsp]
.LVL311:
	push	rax
	.cfi_def_cfa_offset 40
	lea	rax, 13[rsp]
.LVL312:
	push	rax
	.cfi_def_cfa_offset 48
.LVL313:
	lea	rax, 19[rsp]
.LVL314:
	push	rax
	.cfi_def_cfa_offset 56
	lea	rax, 30[rsp]
.LVL315:
	push	rax
	.cfi_def_cfa_offset 64
.LVL316:
	lea	r9, 39[rsp]
	lea	r8, 34[rsp]
.LVL317:
	mov	ecx, 0
	lea	rdx, ._85[rip+120]
	lea	rsi, -120[rdx]
.LVL318:
	lea	rdi, multicharMapping[rip]
.LVL319:
	call	_ZNSt10_HashtableImSt4pairIKmS0_IiPFiR10CallParamsEEESaIS7_ENSt8__detail10_Select1stESt8equal_toImESt4hashImENS9_18_Mod_range_hashingENS9_20_Default_ranged_hashENS9_20_Prime_rehash_policyENS9_17_Hashtable_traitsILb0ELb0ELb1EEEEC1IPKS7_EET_SO_mRKSE_RKSF_RKSG_RKSC_RKSA_RKS8_
.LVL320:
.LBE775:
.LBE774:
.LBE773:
.LBE772:
	.loc 6 19 0
	add	rsp, 32
	.cfi_def_cfa_offset 32
	lea	rdx, __dso_handle[rip]
	lea	rsi, multicharMapping[rip]
	lea	rdi, _ZNSt13unordered_mapImSt4pairIiPFiR10CallParamsEESt4hashImESt8equal_toImESaIS0_IKmS5_EEED1Ev[rip]
	call	__cxa_atexit@PLT
.LVL321:
	.loc 1 117 0
	jmp	.L145
.L150:
	call	__stack_chk_fail@PLT
.LVL322:
	.cfi_endproc
.LFE2970:
	.size	_Z41__static_initialization_and_destruction_0ii, .-_Z41__static_initialization_and_destruction_0ii
	.type	_GLOBAL__sub_I_multicharMapping, @function
_GLOBAL__sub_I_multicharMapping:
.LFB2971:
	.loc 1 117 0
	.cfi_startproc
	sub	rsp, 8
	.cfi_def_cfa_offset 16
	.loc 1 117 0
	mov	esi, 65535
	mov	edi, 1
	call	_Z41__static_initialization_and_destruction_0ii
.LVL323:
	add	rsp, 8
	.cfi_def_cfa_offset 8
	ret
	.cfi_endproc
.LFE2971:
	.size	_GLOBAL__sub_I_multicharMapping, .-_GLOBAL__sub_I_multicharMapping
	.section	.init_array,"aw"
	.align 8
	.quad	_GLOBAL__sub_I_multicharMapping
	.section	.rodata
	.align 32
	.type	._85, @object
	.size	._85, 120
._85:
	.quad	9124488919908728635
	.long	23
	.zero	4
	.quad	0
	.quad	3416275755843533644
	.long	24
	.zero	4
	.quad	0
	.quad	-1631847427290535842
	.long	25
	.zero	4
	.quad	0
	.quad	210805918999320793
	.long	26
	.zero	4
	.quad	0
	.quad	-7652595700909456305
	.long	27
	.zero	4
	.quad	0
	.globl	multicharMapping
	.bss
	.align 32
	.type	multicharMapping, @object
	.size	multicharMapping, 56
multicharMapping:
	.zero	56
	.section	.rodata.cst4,"aM",@progbits,4
	.align 4
.LC3:
	.long	1602224128
	.section	.rodata.cst8,"aM",@progbits,8
	.align 8
.LC4:
	.long	0
	.long	1138753536
	.text
.Letext0:
	.file 10 "/usr/include/c++/7/cstdint"
	.file 11 "/usr/include/c++/7/cstdlib"
	.file 12 "/usr/include/c++/7/cstdio"
	.file 13 "/usr/include/c++/7/type_traits"
	.file 14 "/usr/include/x86_64-linux-gnu/c++/7/bits/c++config.h"
	.file 15 "/usr/include/c++/7/bits/stl_pair.h"
	.file 16 "/usr/include/c++/7/utility"
	.file 17 "/usr/include/c++/7/new"
	.file 18 "/usr/include/c++/7/bits/exception_ptr.h"
	.file 19 "/usr/include/c++/7/bits/stl_iterator_base_types.h"
	.file 20 "/usr/include/c++/7/debug/debug.h"
	.file 21 "/usr/include/c++/7/cwchar"
	.file 22 "/usr/include/c++/7/bits/char_traits.h"
	.file 23 "/usr/include/c++/7/clocale"
	.file 24 "/usr/include/c++/7/bits/alloc_traits.h"
	.file 25 "/usr/include/c++/7/limits"
	.file 26 "/usr/include/c++/7/bits/functional_hash.h"
	.file 27 "/usr/include/c++/7/string_view"
	.file 28 "/usr/include/c++/7/bits/basic_string.h"
	.file 29 "/usr/include/c++/7/bits/uses_allocator.h"
	.file 30 "/usr/include/c++/7/tuple"
	.file 31 "/usr/include/c++/7/optional"
	.file 32 "/usr/include/c++/7/bits/allocator.h"
	.file 33 "/usr/include/c++/7/bits/stl_function.h"
	.file 34 "/usr/include/c++/7/initializer_list"
	.file 35 "/usr/include/c++/7/bits/ptr_traits.h"
	.file 36 "/usr/include/c++/7/bits/move.h"
	.file 37 "/usr/include/c++/7/bits/functexcept.h"
	.file 38 "/usr/include/c++/7/bits/predefined_ops.h"
	.file 39 "/usr/include/c++/7/ext/numeric_traits.h"
	.file 40 "/usr/include/c++/7/ext/aligned_buffer.h"
	.file 41 "/usr/include/x86_64-linux-gnu/bits/types.h"
	.file 42 "/usr/include/x86_64-linux-gnu/bits/stdint-intn.h"
	.file 43 "/usr/include/x86_64-linux-gnu/bits/stdint-uintn.h"
	.file 44 "/usr/include/stdint.h"
	.file 45 "src/lexer.hpp"
	.file 46 "/usr/lib/gcc/x86_64-linux-gnu/7/include/stddef.h"
	.file 47 "/usr/include/stdlib.h"
	.file 48 "/usr/include/x86_64-linux-gnu/bits/stdlib-float.h"
	.file 49 "/usr/include/x86_64-linux-gnu/bits/stdlib-bsearch.h"
	.file 50 "/usr/include/x86_64-linux-gnu/bits/stdlib.h"
	.file 51 "/usr/include/x86_64-linux-gnu/bits/types/__FILE.h"
	.file 52 "/usr/include/x86_64-linux-gnu/bits/libio.h"
	.file 53 "/usr/include/x86_64-linux-gnu/bits/types/FILE.h"
	.file 54 "/usr/include/x86_64-linux-gnu/bits/types/__mbstate_t.h"
	.file 55 "/usr/include/x86_64-linux-gnu/bits/_G_config.h"
	.file 56 "<built-in>"
	.file 57 "/usr/include/stdio.h"
	.file 58 "/usr/include/x86_64-linux-gnu/bits/sys_errlist.h"
	.file 59 "/usr/include/x86_64-linux-gnu/bits/stdio.h"
	.file 60 "/usr/include/x86_64-linux-gnu/bits/types/wint_t.h"
	.file 61 "/usr/include/x86_64-linux-gnu/bits/types/mbstate_t.h"
	.file 62 "/usr/include/wchar.h"
	.file 63 "/usr/include/x86_64-linux-gnu/bits/wchar2.h"
	.file 64 "/usr/include/x86_64-linux-gnu/bits/types/struct_tm.h"
	.file 65 "/usr/include/locale.h"
	.file 66 "/usr/include/time.h"
	.file 67 "/usr/include/errno.h"
	.section	.data.rel.local.DW.ref.__gxx_personality_v0,"awG",@progbits,DW.ref.__gxx_personality_v0,comdat
	.align 8
	.type	DW.ref.__gxx_personality_v0, @object
	.size	DW.ref.__gxx_personality_v0, 8
DW.ref.__gxx_personality_v0:
	.quad	__gxx_personality_v0
	.hidden	__dso_handle
	.ident	"GCC: (Ubuntu 7.5.0-3ubuntu1~18.04) 7.5.0"
	.section	.note.GNU-stack,"",@progbits
