	.file	"extension_api.cc"
	.intel_syntax noprefix
	.text
	.section	.text$_ZSt23__is_constant_evaluatedv,"x"
	.linkonce discard
	.globl	_ZSt23__is_constant_evaluatedv
	.def	_ZSt23__is_constant_evaluatedv;	.scl	2;	.type	32;	.endef
	.seh_proc	_ZSt23__is_constant_evaluatedv
_ZSt23__is_constant_evaluatedv:
.LFB1:
	push	rbp
	.seh_pushreg	rbp
	mov	rbp, rsp
	.seh_setframe	rbp, 0
	.seh_endprologue
	mov	eax, 0
	pop	rbp
	ret
	.seh_endproc
	.section	.text$_ZnwyPv,"x"
	.linkonce discard
	.globl	_ZnwyPv
	.def	_ZnwyPv;	.scl	2;	.type	32;	.endef
	.seh_proc	_ZnwyPv
_ZnwyPv:
.LFB31:
	push	rbp
	.seh_pushreg	rbp
	mov	rbp, rsp
	.seh_setframe	rbp, 0
	.seh_endprologue
	mov	QWORD PTR 16[rbp], rcx
	mov	QWORD PTR 24[rbp], rdx
	mov	rax, QWORD PTR 24[rbp]
	pop	rbp
	ret
	.seh_endproc
	.section	.text$_ZdlPvS_,"x"
	.linkonce discard
	.globl	_ZdlPvS_
	.def	_ZdlPvS_;	.scl	2;	.type	32;	.endef
	.seh_proc	_ZdlPvS_
_ZdlPvS_:
.LFB33:
	push	rbp
	.seh_pushreg	rbp
	mov	rbp, rsp
	.seh_setframe	rbp, 0
	.seh_endprologue
	mov	QWORD PTR 16[rbp], rcx
	mov	QWORD PTR 24[rbp], rdx
	nop
	pop	rbp
	ret
	.seh_endproc
	.globl	_ZSt19piecewise_construct
	.section	.rdata$_ZSt19piecewise_construct,"dr"
	.linkonce same_size
_ZSt19piecewise_construct:
	.space 1
	.section	.text$_ZNSt8__detail15_Hash_node_baseC2Ev,"x"
	.linkonce discard
	.align 2
	.globl	_ZNSt8__detail15_Hash_node_baseC2Ev
	.def	_ZNSt8__detail15_Hash_node_baseC2Ev;	.scl	2;	.type	32;	.endef
	.seh_proc	_ZNSt8__detail15_Hash_node_baseC2Ev
_ZNSt8__detail15_Hash_node_baseC2Ev:
.LFB975:
	push	rbp
	.seh_pushreg	rbp
	mov	rbp, rsp
	.seh_setframe	rbp, 0
	.seh_endprologue
	mov	QWORD PTR 16[rbp], rcx
	mov	rax, QWORD PTR 16[rbp]
	mov	QWORD PTR [rax], 0
	nop
	pop	rbp
	ret
	.seh_endproc
	.section	.text$_ZNKSt8__detail18_Mod_range_hashingclEyy,"x"
	.linkonce discard
	.align 2
	.globl	_ZNKSt8__detail18_Mod_range_hashingclEyy
	.def	_ZNKSt8__detail18_Mod_range_hashingclEyy;	.scl	2;	.type	32;	.endef
	.seh_proc	_ZNKSt8__detail18_Mod_range_hashingclEyy
_ZNKSt8__detail18_Mod_range_hashingclEyy:
.LFB1000:
	push	rbp
	.seh_pushreg	rbp
	mov	rbp, rsp
	.seh_setframe	rbp, 0
	.seh_endprologue
	mov	QWORD PTR 16[rbp], rcx
	mov	QWORD PTR 24[rbp], rdx
	mov	QWORD PTR 32[rbp], r8
	mov	rax, QWORD PTR 24[rbp]
	mov	edx, 0
	div	QWORD PTR 32[rbp]
	mov	rax, rdx
	pop	rbp
	ret
	.seh_endproc
	.section	.text$_ZNKSt8__detail20_Prime_rehash_policy8_M_stateEv,"x"
	.linkonce discard
	.align 2
	.globl	_ZNKSt8__detail20_Prime_rehash_policy8_M_stateEv
	.def	_ZNKSt8__detail20_Prime_rehash_policy8_M_stateEv;	.scl	2;	.type	32;	.endef
	.seh_proc	_ZNKSt8__detail20_Prime_rehash_policy8_M_stateEv
_ZNKSt8__detail20_Prime_rehash_policy8_M_stateEv:
.LFB1006:
	push	rbp
	.seh_pushreg	rbp
	mov	rbp, rsp
	.seh_setframe	rbp, 0
	.seh_endprologue
	mov	QWORD PTR 16[rbp], rcx
	mov	rax, QWORD PTR 16[rbp]
	mov	rax, QWORD PTR 8[rax]
	pop	rbp
	ret
	.seh_endproc
	.section	.text$_ZNSt8__detail20_Prime_rehash_policy8_M_resetEy,"x"
	.linkonce discard
	.align 2
	.globl	_ZNSt8__detail20_Prime_rehash_policy8_M_resetEy
	.def	_ZNSt8__detail20_Prime_rehash_policy8_M_resetEy;	.scl	2;	.type	32;	.endef
	.seh_proc	_ZNSt8__detail20_Prime_rehash_policy8_M_resetEy
_ZNSt8__detail20_Prime_rehash_policy8_M_resetEy:
.LFB1008:
	push	rbp
	.seh_pushreg	rbp
	mov	rbp, rsp
	.seh_setframe	rbp, 0
	.seh_endprologue
	mov	QWORD PTR 16[rbp], rcx
	mov	QWORD PTR 24[rbp], rdx
	mov	rax, QWORD PTR 16[rbp]
	mov	rdx, QWORD PTR 24[rbp]
	mov	QWORD PTR 8[rax], rdx
	nop
	pop	rbp
	ret
	.seh_endproc
	.section	.text$_Z6printfPKcz,"x"
	.linkonce discard
	.globl	_Z6printfPKcz
	.def	_Z6printfPKcz;	.scl	2;	.type	32;	.endef
	.seh_proc	_Z6printfPKcz
_Z6printfPKcz:
.LFB1499:
	push	rbp
	.seh_pushreg	rbp
	push	rbx
	.seh_pushreg	rbx
	sub	rsp, 56
	.seh_stackalloc	56
	lea	rbp, 48[rsp]
	.seh_setframe	rbp, 48
	.seh_endprologue
	mov	QWORD PTR 32[rbp], rcx
	mov	QWORD PTR 40[rbp], rdx
	mov	QWORD PTR 48[rbp], r8
	mov	QWORD PTR 56[rbp], r9
	lea	rax, 40[rbp]
	mov	QWORD PTR -16[rbp], rax
	mov	rbx, QWORD PTR -16[rbp]
	mov	ecx, 1
	mov	rax, QWORD PTR __imp___acrt_iob_func[rip]
	call	rax
	mov	rcx, rax
	mov	rax, QWORD PTR 32[rbp]
	mov	r8, rbx
	mov	rdx, rax
	call	__mingw_vfprintf
	mov	DWORD PTR -4[rbp], eax
	mov	eax, DWORD PTR -4[rbp]
	add	rsp, 56
	pop	rbx
	pop	rbp
	ret
	.seh_endproc
	.section	.text$_ZNK6HasherclERKy,"x"
	.linkonce discard
	.align 2
	.globl	_ZNK6HasherclERKy
	.def	_ZNK6HasherclERKy;	.scl	2;	.type	32;	.endef
	.seh_proc	_ZNK6HasherclERKy
_ZNK6HasherclERKy:
.LFB2787:
	push	rbp
	.seh_pushreg	rbp
	mov	rbp, rsp
	.seh_setframe	rbp, 0
	.seh_endprologue
	mov	QWORD PTR 16[rbp], rcx
	mov	QWORD PTR 24[rbp], rdx
	mov	rax, QWORD PTR 24[rbp]
	mov	rax, QWORD PTR [rax]
	pop	rbp
	ret
	.seh_endproc
	.text
	.globl	_Z15lz77_decompressPhjS_jc
	.def	_Z15lz77_decompressPhjS_jc;	.scl	2;	.type	32;	.endef
	.seh_proc	_Z15lz77_decompressPhjS_jc
_Z15lz77_decompressPhjS_jc:
.LFB7963:
	push	rbp
	.seh_pushreg	rbp
	mov	rbp, rsp
	.seh_setframe	rbp, 0
	sub	rsp, 48
	.seh_stackalloc	48
	.seh_endprologue
	mov	QWORD PTR 16[rbp], rcx
	mov	DWORD PTR 24[rbp], edx
	mov	QWORD PTR 32[rbp], r8
	mov	DWORD PTR 40[rbp], r9d
	mov	eax, DWORD PTR 48[rbp]
	mov	BYTE PTR -36[rbp], al
	movsx	eax, BYTE PTR -36[rbp]
	mov	edx, 1
	mov	ecx, eax
	sal	edx, cl
	mov	eax, edx
	sub	eax, 1
	mov	WORD PTR -16[rbp], ax
	movsx	eax, BYTE PTR -36[rbp]
	mov	edx, 1
	mov	ecx, eax
	sal	edx, cl
	mov	eax, edx
	sub	eax, 1
	mov	WORD PTR -18[rbp], ax
	mov	DWORD PTR -4[rbp], 0
	mov	rax, QWORD PTR 16[rbp]
	movzx	eax, BYTE PTR [rax]
	mov	BYTE PTR -5[rbp], al
	mov	BYTE PTR -6[rbp], 0
	mov	DWORD PTR -12[rbp], 0
	jmp	.L17
.L27:
	cmp	BYTE PTR -6[rbp], 0
	jne	.L18
	mov	BYTE PTR -6[rbp], 1
	mov	rcx, QWORD PTR 16[rbp]
	mov	eax, DWORD PTR -12[rbp]
	lea	edx, 1[rax]
	mov	DWORD PTR -12[rbp], edx
	mov	eax, eax
	add	rax, rcx
	movzx	eax, BYTE PTR [rax]
	mov	BYTE PTR -5[rbp], al
.L18:
	movzx	eax, BYTE PTR -5[rbp]
	and	al, BYTE PTR -6[rbp]
	test	al, al
	je	.L19
	mov	eax, DWORD PTR -12[rbp]
	cmp	eax, DWORD PTR 24[rbp]
	jnb	.L20
	mov	eax, DWORD PTR -4[rbp]
	cmp	eax, DWORD PTR 40[rbp]
	jnb	.L20
	mov	rcx, QWORD PTR 16[rbp]
	mov	eax, DWORD PTR -12[rbp]
	lea	edx, 1[rax]
	mov	DWORD PTR -12[rbp], edx
	mov	eax, eax
	add	rax, rcx
	movzx	edx, BYTE PTR [rax]
	mov	r8, QWORD PTR 32[rbp]
	mov	eax, DWORD PTR -4[rbp]
	lea	ecx, 1[rax]
	mov	DWORD PTR -4[rbp], ecx
	mov	eax, eax
	add	rax, r8
	mov	BYTE PTR [rax], dl
	jmp	.L22
.L20:
	add	DWORD PTR -4[rbp], 1
	add	DWORD PTR -12[rbp], 1
	jmp	.L22
.L19:
	mov	eax, DWORD PTR 24[rbp]
	sub	eax, 1
	cmp	DWORD PTR -12[rbp], eax
	jnb	.L23
	mov	rcx, QWORD PTR 16[rbp]
	mov	eax, DWORD PTR -12[rbp]
	lea	edx, 1[rax]
	mov	DWORD PTR -12[rbp], edx
	mov	eax, eax
	add	rax, rcx
	movzx	eax, BYTE PTR [rax]
	mov	BYTE PTR -19[rbp], al
	mov	rcx, QWORD PTR 16[rbp]
	mov	eax, DWORD PTR -12[rbp]
	lea	edx, 1[rax]
	mov	DWORD PTR -12[rbp], edx
	mov	eax, eax
	add	rax, rcx
	movzx	eax, BYTE PTR [rax]
	mov	BYTE PTR -20[rbp], al
	movzx	eax, BYTE PTR -19[rbp]
	sal	eax, 8
	mov	edx, eax
	movzx	eax, BYTE PTR -20[rbp]
	or	eax, edx
	mov	WORD PTR -22[rbp], ax
	movzx	eax, WORD PTR -22[rbp]
	and	ax, WORD PTR -18[rbp]
	mov	WORD PTR -24[rbp], ax
	movzx	edx, WORD PTR -22[rbp]
	movsx	eax, BYTE PTR -36[rbp]
	mov	ecx, eax
	sar	edx, cl
	mov	eax, edx
	mov	WORD PTR -26[rbp], ax
	mov	WORD PTR -14[rbp], 0
	jmp	.L24
.L26:
	mov	eax, DWORD PTR -4[rbp]
	cmp	eax, DWORD PTR 40[rbp]
	jnb	.L25
	movzx	eax, WORD PTR -26[rbp]
	mov	edx, DWORD PTR -4[rbp]
	sub	edx, eax
	mov	edx, edx
	mov	rax, QWORD PTR 32[rbp]
	add	rax, rdx
	mov	ecx, DWORD PTR -4[rbp]
	mov	rdx, QWORD PTR 32[rbp]
	add	rdx, rcx
	movzx	eax, BYTE PTR [rax]
	mov	BYTE PTR [rdx], al
.L25:
	add	DWORD PTR -4[rbp], 1
	movzx	eax, WORD PTR -14[rbp]
	add	eax, 1
	mov	WORD PTR -14[rbp], ax
.L24:
	movzx	eax, WORD PTR -14[rbp]
	cmp	ax, WORD PTR -24[rbp]
	jb	.L26
	jmp	.L22
.L23:
	add	DWORD PTR -12[rbp], 2
.L22:
	sal	BYTE PTR -6[rbp]
.L17:
	mov	eax, DWORD PTR -12[rbp]
	cmp	eax, DWORD PTR 24[rbp]
	jb	.L27
	mov	eax, DWORD PTR -4[rbp]
	add	rsp, 48
	pop	rbp
	ret
	.seh_endproc
	.def	_ZL9sinfl_bsrj;	.scl	3;	.type	32;	.endef
	.seh_proc	_ZL9sinfl_bsrj
_ZL9sinfl_bsrj:
.LFB7964:
	push	rbp
	.seh_pushreg	rbp
	mov	rbp, rsp
	.seh_setframe	rbp, 0
	.seh_endprologue
	mov	DWORD PTR 16[rbp], ecx
	bsr	eax, DWORD PTR 16[rbp]
	xor	eax, 31
	mov	edx, 31
	sub	edx, eax
	mov	eax, edx
	pop	rbp
	ret
	.seh_endproc
	.def	_ZL12sinfl_read64PKv;	.scl	3;	.type	32;	.endef
	.seh_proc	_ZL12sinfl_read64PKv
_ZL12sinfl_read64PKv:
.LFB7965:
	push	rbp
	.seh_pushreg	rbp
	mov	rbp, rsp
	.seh_setframe	rbp, 0
	sub	rsp, 16
	.seh_stackalloc	16
	.seh_endprologue
	mov	QWORD PTR 16[rbp], rcx
	mov	rax, QWORD PTR 16[rbp]
	mov	rax, QWORD PTR [rax]
	mov	QWORD PTR -8[rbp], rax
	mov	rax, QWORD PTR -8[rbp]
	add	rsp, 16
	pop	rbp
	ret
	.seh_endproc
	.def	_ZL12sinfl_copy64PPhS0_;	.scl	3;	.type	32;	.endef
	.seh_proc	_ZL12sinfl_copy64PPhS0_
_ZL12sinfl_copy64PPhS0_:
.LFB7966:
	push	rbp
	.seh_pushreg	rbp
	mov	rbp, rsp
	.seh_setframe	rbp, 0
	sub	rsp, 16
	.seh_stackalloc	16
	.seh_endprologue
	mov	QWORD PTR 16[rbp], rcx
	mov	QWORD PTR 24[rbp], rdx
	mov	rax, QWORD PTR 24[rbp]
	mov	rax, QWORD PTR [rax]
	mov	rax, QWORD PTR [rax]
	mov	QWORD PTR -8[rbp], rax
	mov	rax, QWORD PTR 16[rbp]
	mov	rax, QWORD PTR [rax]
	mov	rdx, QWORD PTR -8[rbp]
	mov	QWORD PTR [rax], rdx
	mov	rax, QWORD PTR 16[rbp]
	mov	rax, QWORD PTR [rax]
	lea	rdx, 8[rax]
	mov	rax, QWORD PTR 16[rbp]
	mov	QWORD PTR [rax], rdx
	mov	rax, QWORD PTR 24[rbp]
	mov	rax, QWORD PTR [rax]
	lea	rdx, 8[rax]
	mov	rax, QWORD PTR 24[rbp]
	mov	QWORD PTR [rax], rdx
	nop
	add	rsp, 16
	pop	rbp
	ret
	.seh_endproc
	.def	_ZL13sinfl_write64Phy;	.scl	3;	.type	32;	.endef
	.seh_proc	_ZL13sinfl_write64Phy
_ZL13sinfl_write64Phy:
.LFB7967:
	push	rbp
	.seh_pushreg	rbp
	mov	rbp, rsp
	.seh_setframe	rbp, 0
	.seh_endprologue
	mov	QWORD PTR 16[rbp], rcx
	mov	QWORD PTR 24[rbp], rdx
	mov	rdx, QWORD PTR 24[rbp]
	mov	rax, QWORD PTR 16[rbp]
	mov	QWORD PTR [rax], rdx
	mov	rax, QWORD PTR 16[rbp]
	add	rax, 8
	pop	rbp
	ret
	.seh_endproc
	.def	_ZL14sinfl_write128PhDv2_x;	.scl	3;	.type	32;	.endef
	.seh_proc	_ZL14sinfl_write128PhDv2_x
_ZL14sinfl_write128PhDv2_x:
.LFB7968:
	push	rbp
	.seh_pushreg	rbp
	push	rbx
	.seh_pushreg	rbx
	sub	rsp, 56
	.seh_stackalloc	56
	lea	rbp, 48[rsp]
	.seh_setframe	rbp, 48
	.seh_endprologue
	mov	QWORD PTR 32[rbp], rcx
	mov	rbx, rdx
	movdqa	xmm0, XMMWORD PTR [rbx]
	movaps	XMMWORD PTR -48[rbp], xmm0
	mov	rax, QWORD PTR 32[rbp]
	mov	QWORD PTR -8[rbp], rax
	movdqa	xmm0, XMMWORD PTR -48[rbp]
	movaps	XMMWORD PTR -32[rbp], xmm0
	movdqa	xmm0, XMMWORD PTR -32[rbp]
	mov	rax, QWORD PTR -8[rbp]
	movups	XMMWORD PTR [rax], xmm0
	nop
	mov	rax, QWORD PTR 32[rbp]
	add	rax, 8
	add	rsp, 56
	pop	rbx
	pop	rbp
	ret
	.seh_endproc
	.def	_ZL13sinfl_copy128PPhS0_;	.scl	3;	.type	32;	.endef
	.seh_proc	_ZL13sinfl_copy128PPhS0_
_ZL13sinfl_copy128PPhS0_:
.LFB7969:
	push	rbp
	.seh_pushreg	rbp
	mov	rbp, rsp
	.seh_setframe	rbp, 0
	sub	rsp, 64
	.seh_stackalloc	64
	.seh_endprologue
	mov	QWORD PTR 16[rbp], rcx
	mov	QWORD PTR 24[rbp], rdx
	mov	rax, QWORD PTR 24[rbp]
	mov	rax, QWORD PTR [rax]
	mov	QWORD PTR -56[rbp], rax
	mov	rax, QWORD PTR -56[rbp]
	movdqu	xmm0, XMMWORD PTR [rax]
	movaps	XMMWORD PTR -16[rbp], xmm0
	mov	rax, QWORD PTR 16[rbp]
	mov	rax, QWORD PTR [rax]
	mov	QWORD PTR -24[rbp], rax
	movdqa	xmm0, XMMWORD PTR -16[rbp]
	movaps	XMMWORD PTR -48[rbp], xmm0
	movdqa	xmm0, XMMWORD PTR -48[rbp]
	mov	rax, QWORD PTR -24[rbp]
	movups	XMMWORD PTR [rax], xmm0
	nop
	mov	rax, QWORD PTR 16[rbp]
	mov	rax, QWORD PTR [rax]
	lea	rdx, 16[rax]
	mov	rax, QWORD PTR 16[rbp]
	mov	QWORD PTR [rax], rdx
	mov	rax, QWORD PTR 24[rbp]
	mov	rax, QWORD PTR [rax]
	lea	rdx, 16[rax]
	mov	rax, QWORD PTR 24[rbp]
	mov	QWORD PTR [rax], rdx
	nop
	add	rsp, 64
	pop	rbp
	ret
	.seh_endproc
	.def	_ZL12sinfl_refillP5sinfl;	.scl	3;	.type	32;	.endef
	.seh_proc	_ZL12sinfl_refillP5sinfl
_ZL12sinfl_refillP5sinfl:
.LFB7970:
	push	rbp
	.seh_pushreg	rbp
	mov	rbp, rsp
	.seh_setframe	rbp, 0
	sub	rsp, 32
	.seh_stackalloc	32
	.seh_endprologue
	mov	QWORD PTR 16[rbp], rcx
	mov	rax, QWORD PTR 16[rbp]
	mov	rax, QWORD PTR [rax]
	mov	rcx, rax
	call	_ZL12sinfl_read64PKv
	mov	rdx, rax
	mov	rax, QWORD PTR 16[rbp]
	mov	eax, DWORD PTR 16[rax]
	mov	ecx, eax
	sal	rdx, cl
	mov	rax, QWORD PTR 16[rbp]
	mov	rax, QWORD PTR 8[rax]
	or	rdx, rax
	mov	rax, QWORD PTR 16[rbp]
	mov	QWORD PTR 8[rax], rdx
	mov	rax, QWORD PTR 16[rbp]
	mov	rdx, QWORD PTR [rax]
	mov	rax, QWORD PTR 16[rbp]
	mov	eax, DWORD PTR 16[rax]
	mov	ecx, 63
	sub	ecx, eax
	mov	eax, ecx
	sar	eax, 3
	cdqe
	add	rdx, rax
	mov	rax, QWORD PTR 16[rbp]
	mov	QWORD PTR [rax], rdx
	mov	rax, QWORD PTR 16[rbp]
	mov	eax, DWORD PTR 16[rax]
	or	eax, 56
	mov	edx, eax
	mov	rax, QWORD PTR 16[rbp]
	mov	DWORD PTR 16[rax], edx
	nop
	add	rsp, 32
	pop	rbp
	ret
	.seh_endproc
	.section .rdata,"dr"
.LC0:
	.ascii "../../extern/sinfl.hh\0"
.LC1:
	.ascii "cnt >= 0 && cnt <= 56\0"
.LC2:
	.ascii "cnt <= s->bitcnt\0"
	.text
	.def	_ZL10sinfl_peekP5sinfli;	.scl	3;	.type	32;	.endef
	.seh_proc	_ZL10sinfl_peekP5sinfli
_ZL10sinfl_peekP5sinfli:
.LFB7971:
	push	rbp
	.seh_pushreg	rbp
	mov	rbp, rsp
	.seh_setframe	rbp, 0
	sub	rsp, 32
	.seh_stackalloc	32
	.seh_endprologue
	mov	QWORD PTR 16[rbp], rcx
	mov	DWORD PTR 24[rbp], edx
	cmp	DWORD PTR 24[rbp], 0
	js	.L42
	cmp	DWORD PTR 24[rbp], 56
	jle	.L45
.L42:
	mov	r8d, 108
	lea	rax, .LC0[rip]
	mov	rdx, rax
	lea	rax, .LC1[rip]
	mov	rcx, rax
	mov	rax, QWORD PTR __imp__assert[rip]
	call	rax
.L45:
	mov	rax, QWORD PTR 16[rbp]
	mov	eax, DWORD PTR 16[rax]
	cmp	DWORD PTR 24[rbp], eax
	jle	.L48
	mov	r8d, 109
	lea	rax, .LC0[rip]
	mov	rdx, rax
	lea	rax, .LC2[rip]
	mov	rcx, rax
	mov	rax, QWORD PTR __imp__assert[rip]
	call	rax
.L48:
	mov	rax, QWORD PTR 16[rbp]
	mov	rax, QWORD PTR 8[rax]
	mov	edx, eax
	mov	eax, DWORD PTR 24[rbp]
	mov	r8, -1
	mov	ecx, eax
	sal	r8, cl
	mov	rax, r8
	not	eax
	and	eax, edx
	add	rsp, 32
	pop	rbp
	ret
	.seh_endproc
	.def	_ZL9sinfl_eatP5sinfli;	.scl	3;	.type	32;	.endef
	.seh_proc	_ZL9sinfl_eatP5sinfli
_ZL9sinfl_eatP5sinfli:
.LFB7972:
	push	rbp
	.seh_pushreg	rbp
	mov	rbp, rsp
	.seh_setframe	rbp, 0
	sub	rsp, 32
	.seh_stackalloc	32
	.seh_endprologue
	mov	QWORD PTR 16[rbp], rcx
	mov	DWORD PTR 24[rbp], edx
	mov	rax, QWORD PTR 16[rbp]
	mov	eax, DWORD PTR 16[rax]
	cmp	DWORD PTR 24[rbp], eax
	jle	.L53
	mov	r8d, 114
	lea	rax, .LC0[rip]
	mov	rdx, rax
	lea	rax, .LC2[rip]
	mov	rcx, rax
	mov	rax, QWORD PTR __imp__assert[rip]
	call	rax
.L53:
	mov	rax, QWORD PTR 16[rbp]
	mov	rdx, QWORD PTR 8[rax]
	mov	eax, DWORD PTR 24[rbp]
	mov	ecx, eax
	shr	rdx, cl
	mov	rax, QWORD PTR 16[rbp]
	mov	QWORD PTR 8[rax], rdx
	mov	rax, QWORD PTR 16[rbp]
	mov	eax, DWORD PTR 16[rax]
	sub	eax, DWORD PTR 24[rbp]
	mov	edx, eax
	mov	rax, QWORD PTR 16[rbp]
	mov	DWORD PTR 16[rax], edx
	nop
	add	rsp, 32
	pop	rbp
	ret
	.seh_endproc
	.def	_ZL10sinfl__getP5sinfli;	.scl	3;	.type	32;	.endef
	.seh_proc	_ZL10sinfl__getP5sinfli
_ZL10sinfl__getP5sinfli:
.LFB7973:
	push	rbp
	.seh_pushreg	rbp
	mov	rbp, rsp
	.seh_setframe	rbp, 0
	sub	rsp, 48
	.seh_stackalloc	48
	.seh_endprologue
	mov	QWORD PTR 16[rbp], rcx
	mov	DWORD PTR 24[rbp], edx
	mov	edx, DWORD PTR 24[rbp]
	mov	rax, QWORD PTR 16[rbp]
	mov	rcx, rax
	call	_ZL10sinfl_peekP5sinfli
	mov	DWORD PTR -4[rbp], eax
	mov	edx, DWORD PTR 24[rbp]
	mov	rax, QWORD PTR 16[rbp]
	mov	rcx, rax
	call	_ZL9sinfl_eatP5sinfli
	mov	eax, DWORD PTR -4[rbp]
	add	rsp, 48
	pop	rbp
	ret
	.seh_endproc
	.def	_ZL9sinfl_getP5sinfli;	.scl	3;	.type	32;	.endef
	.seh_proc	_ZL9sinfl_getP5sinfli
_ZL9sinfl_getP5sinfli:
.LFB7974:
	push	rbp
	.seh_pushreg	rbp
	mov	rbp, rsp
	.seh_setframe	rbp, 0
	sub	rsp, 32
	.seh_stackalloc	32
	.seh_endprologue
	mov	QWORD PTR 16[rbp], rcx
	mov	DWORD PTR 24[rbp], edx
	mov	rax, QWORD PTR 16[rbp]
	mov	rcx, rax
	call	_ZL12sinfl_refillP5sinfl
	mov	edx, DWORD PTR 24[rbp]
	mov	rax, QWORD PTR 16[rbp]
	mov	rcx, rax
	call	_ZL10sinfl__getP5sinfli
	add	rsp, 32
	pop	rbp
	ret
	.seh_endproc
	.def	_ZL15sinfl_build_tblP9sinfl_genPjiPKi;	.scl	3;	.type	32;	.endef
	.seh_proc	_ZL15sinfl_build_tblP9sinfl_genPjiPKi
_ZL15sinfl_build_tblP9sinfl_genPjiPKi:
.LFB7975:
	push	rbp
	.seh_pushreg	rbp
	mov	rbp, rsp
	.seh_setframe	rbp, 0
	sub	rsp, 48
	.seh_stackalloc	48
	.seh_endprologue
	mov	QWORD PTR 16[rbp], rcx
	mov	QWORD PTR 24[rbp], rdx
	mov	DWORD PTR 32[rbp], r8d
	mov	QWORD PTR 40[rbp], r9
	mov	DWORD PTR -4[rbp], 0
	jmp	.L59
.L60:
	mov	rax, QWORD PTR 16[rbp]
	mov	eax, DWORD PTR [rax]
	lea	edx, 1[rax]
	mov	rax, QWORD PTR 16[rbp]
	mov	DWORD PTR [rax], edx
.L59:
	mov	rax, QWORD PTR 16[rbp]
	mov	eax, DWORD PTR [rax]
	cdqe
	lea	rdx, 0[0+rax*4]
	mov	rax, QWORD PTR 40[rbp]
	add	rax, rdx
	mov	edx, DWORD PTR [rax]
	mov	rax, QWORD PTR 16[rbp]
	mov	DWORD PTR 4[rax], edx
	mov	rax, QWORD PTR 16[rbp]
	mov	eax, DWORD PTR 4[rax]
	test	eax, eax
	sete	al
	test	al, al
	jne	.L60
	mov	rax, QWORD PTR 16[rbp]
	mov	eax, DWORD PTR [rax]
	mov	edx, 1
	mov	ecx, eax
	sal	edx, cl
	mov	eax, edx
	mov	DWORD PTR -4[rbp], eax
	jmp	.L61
.L66:
	mov	DWORD PTR -8[rbp], 0
	mov	rax, QWORD PTR 16[rbp]
	mov	rax, QWORD PTR 16[rax]
	lea	rcx, 2[rax]
	mov	rdx, QWORD PTR 16[rbp]
	mov	QWORD PTR 16[rdx], rcx
	movzx	eax, WORD PTR [rax]
	cwde
	sal	eax, 16
	mov	edx, eax
	mov	rax, QWORD PTR 16[rbp]
	mov	eax, DWORD PTR [rax]
	or	edx, eax
	mov	rax, QWORD PTR 16[rbp]
	mov	eax, DWORD PTR 8[rax]
	cdqe
	lea	rcx, 0[0+rax*4]
	mov	rax, QWORD PTR 24[rbp]
	add	rax, rcx
	mov	DWORD PTR [rax], edx
	mov	rax, QWORD PTR 16[rbp]
	mov	edx, DWORD PTR 8[rax]
	mov	eax, DWORD PTR -4[rbp]
	sub	eax, 1
	cmp	edx, eax
	jne	.L62
	jmp	.L63
.L64:
	mov	eax, DWORD PTR -4[rbp]
	cdqe
	lea	r8, 0[0+rax*4]
	mov	eax, DWORD PTR -4[rbp]
	cdqe
	lea	rdx, 0[0+rax*4]
	mov	rax, QWORD PTR 24[rbp]
	lea	rcx, [rdx+rax]
	mov	rax, QWORD PTR 24[rbp]
	mov	rdx, rax
	call	memcpy
	sal	DWORD PTR -4[rbp]
	mov	rax, QWORD PTR 16[rbp]
	mov	eax, DWORD PTR [rax]
	lea	edx, 1[rax]
	mov	rax, QWORD PTR 16[rbp]
	mov	DWORD PTR [rax], edx
.L63:
	mov	rax, QWORD PTR 16[rbp]
	mov	eax, DWORD PTR [rax]
	cmp	DWORD PTR 32[rbp], eax
	jg	.L64
	mov	eax, 1
	jmp	.L65
.L62:
	mov	rax, QWORD PTR 16[rbp]
	mov	eax, DWORD PTR 8[rax]
	mov	edx, DWORD PTR -4[rbp]
	sub	edx, 1
	xor	eax, edx
	mov	ecx, eax
	call	_ZL9sinfl_bsrj
	mov	edx, 1
	mov	ecx, eax
	sal	edx, cl
	mov	eax, edx
	mov	DWORD PTR -8[rbp], eax
	mov	rax, QWORD PTR 16[rbp]
	mov	eax, DWORD PTR 8[rax]
	mov	edx, eax
	mov	eax, DWORD PTR -8[rbp]
	sub	eax, 1
	and	eax, edx
	mov	edx, eax
	mov	rax, QWORD PTR 16[rbp]
	mov	DWORD PTR 8[rax], edx
	mov	rax, QWORD PTR 16[rbp]
	mov	eax, DWORD PTR 8[rax]
	or	eax, DWORD PTR -8[rbp]
	mov	edx, eax
	mov	rax, QWORD PTR 16[rbp]
	mov	DWORD PTR 8[rax], edx
	mov	rax, QWORD PTR 16[rbp]
	mov	eax, DWORD PTR 4[rax]
	lea	edx, -1[rax]
	mov	rax, QWORD PTR 16[rbp]
	mov	DWORD PTR 4[rax], edx
	mov	rax, QWORD PTR 16[rbp]
	mov	eax, DWORD PTR 4[rax]
	test	eax, eax
	setne	al
	test	al, al
	jne	.L66
.L68:
	mov	rax, QWORD PTR 16[rbp]
	mov	eax, DWORD PTR [rax]
	lea	edx, 1[rax]
	mov	rax, QWORD PTR 16[rbp]
	mov	DWORD PTR [rax], edx
	mov	rax, QWORD PTR 16[rbp]
	mov	eax, DWORD PTR [rax]
	cmp	DWORD PTR 32[rbp], eax
	setge	al
	test	al, al
	je	.L67
	mov	eax, DWORD PTR -4[rbp]
	cdqe
	lea	r8, 0[0+rax*4]
	mov	eax, DWORD PTR -4[rbp]
	cdqe
	lea	rdx, 0[0+rax*4]
	mov	rax, QWORD PTR 24[rbp]
	lea	rcx, [rdx+rax]
	mov	rax, QWORD PTR 24[rbp]
	mov	rdx, rax
	call	memcpy
	sal	DWORD PTR -4[rbp]
.L67:
	mov	rax, QWORD PTR 16[rbp]
	mov	eax, DWORD PTR [rax]
	cdqe
	lea	rdx, 0[0+rax*4]
	mov	rax, QWORD PTR 40[rbp]
	add	rax, rdx
	mov	edx, DWORD PTR [rax]
	mov	rax, QWORD PTR 16[rbp]
	mov	DWORD PTR 4[rax], edx
	mov	rax, QWORD PTR 16[rbp]
	mov	eax, DWORD PTR 4[rax]
	test	eax, eax
	sete	al
	test	al, al
	jne	.L68
.L61:
	mov	rax, QWORD PTR 16[rbp]
	mov	eax, DWORD PTR [rax]
	cmp	DWORD PTR 32[rbp], eax
	jge	.L66
	mov	eax, 0
.L65:
	add	rsp, 48
	pop	rbp
	ret
	.seh_endproc
	.def	_ZL18sinfl_build_subtblP9sinfl_genPjiPKi;	.scl	3;	.type	32;	.endef
	.seh_proc	_ZL18sinfl_build_subtblP9sinfl_genPjiPKi
_ZL18sinfl_build_subtblP9sinfl_genPjiPKi:
.LFB7976:
	push	rbp
	.seh_pushreg	rbp
	mov	rbp, rsp
	.seh_setframe	rbp, 0
	sub	rsp, 80
	.seh_stackalloc	80
	.seh_endprologue
	mov	QWORD PTR 16[rbp], rcx
	mov	QWORD PTR 24[rbp], rdx
	mov	DWORD PTR 32[rbp], r8d
	mov	QWORD PTR 40[rbp], r9
	mov	DWORD PTR -4[rbp], 0
	mov	DWORD PTR -8[rbp], 0
	mov	DWORD PTR -12[rbp], -1
	mov	eax, DWORD PTR 32[rbp]
	mov	edx, 1
	mov	ecx, eax
	sal	edx, cl
	mov	eax, edx
	mov	DWORD PTR -16[rbp], eax
.L78:
	mov	rax, QWORD PTR 16[rbp]
	mov	edx, DWORD PTR 8[rax]
	mov	eax, DWORD PTR 32[rbp]
	mov	r8d, 1
	mov	ecx, eax
	sal	r8d, cl
	mov	eax, r8d
	sub	eax, 1
	and	eax, edx
	cmp	DWORD PTR -12[rbp], eax
	je	.L70
	mov	DWORD PTR -24[rbp], 0
	mov	rax, QWORD PTR 16[rbp]
	mov	edx, DWORD PTR 8[rax]
	mov	eax, DWORD PTR 32[rbp]
	mov	r8d, 1
	mov	ecx, eax
	sal	r8d, cl
	mov	eax, r8d
	sub	eax, 1
	and	eax, edx
	mov	DWORD PTR -12[rbp], eax
	mov	eax, DWORD PTR -16[rbp]
	mov	DWORD PTR -8[rbp], eax
	mov	rax, QWORD PTR 16[rbp]
	mov	eax, DWORD PTR [rax]
	sub	eax, DWORD PTR 32[rbp]
	mov	DWORD PTR -4[rbp], eax
	mov	rax, QWORD PTR 16[rbp]
	mov	eax, DWORD PTR 4[rax]
	mov	DWORD PTR -24[rbp], eax
	jmp	.L71
.L72:
	add	DWORD PTR -4[rbp], 1
	mov	eax, DWORD PTR -24[rbp]
	lea	ecx, [rax+rax]
	mov	edx, DWORD PTR 32[rbp]
	mov	eax, DWORD PTR -4[rbp]
	add	eax, edx
	cdqe
	lea	rdx, 0[0+rax*4]
	mov	rax, QWORD PTR 40[rbp]
	add	rax, rdx
	mov	eax, DWORD PTR [rax]
	add	eax, ecx
	mov	DWORD PTR -24[rbp], eax
.L71:
	mov	eax, DWORD PTR -4[rbp]
	mov	edx, 1
	mov	ecx, eax
	sal	edx, cl
	mov	eax, edx
	cmp	DWORD PTR -24[rbp], eax
	jl	.L72
	mov	eax, DWORD PTR -4[rbp]
	mov	edx, 1
	mov	ecx, eax
	sal	edx, cl
	mov	eax, DWORD PTR -8[rbp]
	add	eax, edx
	mov	DWORD PTR -16[rbp], eax
	mov	eax, DWORD PTR -8[rbp]
	sal	eax, 16
	or	eax, 16
	mov	edx, eax
	mov	eax, DWORD PTR -4[rbp]
	and	eax, 15
	or	edx, eax
	mov	eax, DWORD PTR -12[rbp]
	cdqe
	lea	rcx, 0[0+rax*4]
	mov	rax, QWORD PTR 24[rbp]
	add	rax, rcx
	mov	DWORD PTR [rax], edx
.L70:
	mov	rax, QWORD PTR 16[rbp]
	mov	rax, QWORD PTR 16[rax]
	movzx	eax, WORD PTR [rax]
	cwde
	sal	eax, 16
	mov	edx, eax
	mov	rax, QWORD PTR 16[rbp]
	mov	eax, DWORD PTR [rax]
	sub	eax, DWORD PTR 32[rbp]
	and	eax, 15
	or	eax, edx
	mov	DWORD PTR -28[rbp], eax
	mov	rax, QWORD PTR 16[rbp]
	mov	rax, QWORD PTR 16[rax]
	lea	rdx, 2[rax]
	mov	rax, QWORD PTR 16[rbp]
	mov	QWORD PTR 16[rax], rdx
	mov	rax, QWORD PTR 16[rbp]
	mov	edx, DWORD PTR 8[rax]
	mov	eax, DWORD PTR 32[rbp]
	mov	ecx, eax
	sar	edx, cl
	mov	eax, DWORD PTR -8[rbp]
	add	eax, edx
	mov	DWORD PTR -20[rbp], eax
	mov	rax, QWORD PTR 16[rbp]
	mov	eax, DWORD PTR [rax]
	sub	eax, DWORD PTR 32[rbp]
	mov	edx, 1
	mov	ecx, eax
	sal	edx, cl
	mov	eax, edx
	mov	DWORD PTR -32[rbp], eax
.L73:
	mov	eax, DWORD PTR -20[rbp]
	cdqe
	lea	rdx, 0[0+rax*4]
	mov	rax, QWORD PTR 24[rbp]
	add	rdx, rax
	mov	eax, DWORD PTR -28[rbp]
	mov	DWORD PTR [rdx], eax
	mov	eax, DWORD PTR -32[rbp]
	add	DWORD PTR -20[rbp], eax
	mov	eax, DWORD PTR -20[rbp]
	cmp	eax, DWORD PTR -16[rbp]
	jl	.L73
	mov	rax, QWORD PTR 16[rbp]
	mov	edx, DWORD PTR 8[rax]
	mov	rax, QWORD PTR 16[rbp]
	mov	eax, DWORD PTR [rax]
	mov	r8d, 1
	mov	ecx, eax
	sal	r8d, cl
	mov	eax, r8d
	sub	eax, 1
	cmp	edx, eax
	je	.L80
	mov	rax, QWORD PTR 16[rbp]
	mov	edx, DWORD PTR 8[rax]
	mov	rax, QWORD PTR 16[rbp]
	mov	eax, DWORD PTR [rax]
	mov	r8d, 1
	mov	ecx, eax
	sal	r8d, cl
	mov	eax, r8d
	sub	eax, 1
	xor	eax, edx
	mov	ecx, eax
	call	_ZL9sinfl_bsrj
	mov	edx, 1
	mov	ecx, eax
	sal	edx, cl
	mov	eax, edx
	mov	DWORD PTR -36[rbp], eax
	mov	rax, QWORD PTR 16[rbp]
	mov	eax, DWORD PTR 8[rax]
	mov	edx, DWORD PTR -36[rbp]
	sub	edx, 1
	and	edx, eax
	mov	rax, QWORD PTR 16[rbp]
	mov	DWORD PTR 8[rax], edx
	mov	rax, QWORD PTR 16[rbp]
	mov	eax, DWORD PTR 8[rax]
	or	eax, DWORD PTR -36[rbp]
	mov	edx, eax
	mov	rax, QWORD PTR 16[rbp]
	mov	DWORD PTR 8[rax], edx
	mov	rax, QWORD PTR 16[rbp]
	mov	eax, DWORD PTR 4[rax]
	lea	edx, -1[rax]
	mov	rax, QWORD PTR 16[rbp]
	mov	DWORD PTR 4[rax], edx
	jmp	.L76
.L77:
	mov	rdx, QWORD PTR 40[rbp]
	mov	rax, QWORD PTR 16[rbp]
	mov	eax, DWORD PTR [rax]
	lea	ecx, 1[rax]
	mov	rax, QWORD PTR 16[rbp]
	mov	DWORD PTR [rax], ecx
	mov	rax, QWORD PTR 16[rbp]
	mov	eax, DWORD PTR [rax]
	cdqe
	sal	rax, 2
	add	rax, rdx
	mov	edx, DWORD PTR [rax]
	mov	rax, QWORD PTR 16[rbp]
	mov	DWORD PTR 4[rax], edx
.L76:
	mov	rax, QWORD PTR 16[rbp]
	mov	eax, DWORD PTR 4[rax]
	test	eax, eax
	je	.L77
	jmp	.L78
.L80:
	nop
	add	rsp, 80
	pop	rbp
	ret
	.seh_endproc
	.def	_ZL11sinfl_buildPjPhiii;	.scl	3;	.type	32;	.endef
	.seh_proc	_ZL11sinfl_buildPjPhiii
_ZL11sinfl_buildPjPhiii:
.LFB7977:
	push	rbp
	.seh_pushreg	rbp
	sub	rsp, 784
	.seh_stackalloc	784
	lea	rbp, 128[rsp]
	.seh_setframe	rbp, 128
	.seh_endprologue
	mov	QWORD PTR 672[rbp], rcx
	mov	QWORD PTR 680[rbp], rdx
	mov	DWORD PTR 688[rbp], r8d
	mov	DWORD PTR 696[rbp], r9d
	mov	DWORD PTR 648[rbp], 0
	pxor	xmm0, xmm0
	movaps	XMMWORD PTR 0[rbp], xmm0
	movaps	XMMWORD PTR 16[rbp], xmm0
	movaps	XMMWORD PTR 32[rbp], xmm0
	movaps	XMMWORD PTR 48[rbp], xmm0
	pxor	xmm0, xmm0
	movaps	XMMWORD PTR -64[rbp], xmm0
	movaps	XMMWORD PTR -48[rbp], xmm0
	movaps	XMMWORD PTR -32[rbp], xmm0
	movaps	XMMWORD PTR -16[rbp], xmm0
	pxor	xmm0, xmm0
	movaps	XMMWORD PTR -96[rbp], xmm0
	movq	QWORD PTR -80[rbp], xmm0
	lea	rax, 64[rbp]
	mov	QWORD PTR -80[rbp], rax
	mov	DWORD PTR -96[rbp], 1
	mov	DWORD PTR 652[rbp], 0
	jmp	.L82
.L83:
	mov	eax, DWORD PTR 652[rbp]
	movsx	rdx, eax
	mov	rax, QWORD PTR 680[rbp]
	add	rax, rdx
	movzx	eax, BYTE PTR [rax]
	movzx	eax, al
	movsx	rdx, eax
	mov	edx, DWORD PTR 0[rbp+rdx*4]
	add	edx, 1
	cdqe
	mov	DWORD PTR 0[rbp+rax*4], edx
	add	DWORD PTR 652[rbp], 1
.L82:
	mov	eax, DWORD PTR 652[rbp]
	cmp	eax, DWORD PTR 704[rbp]
	jl	.L83
	mov	eax, DWORD PTR 0[rbp]
	mov	DWORD PTR -60[rbp], eax
	mov	DWORD PTR 652[rbp], 1
	jmp	.L84
.L85:
	mov	eax, DWORD PTR 652[rbp]
	cdqe
	mov	edx, DWORD PTR -64[rbp+rax*4]
	mov	eax, DWORD PTR 652[rbp]
	cdqe
	mov	eax, DWORD PTR 0[rbp+rax*4]
	mov	ecx, DWORD PTR 652[rbp]
	add	ecx, 1
	add	edx, eax
	movsx	rax, ecx
	mov	DWORD PTR -64[rbp+rax*4], edx
	mov	eax, DWORD PTR 648[rbp]
	lea	edx, [rax+rax]
	mov	eax, DWORD PTR 652[rbp]
	cdqe
	mov	eax, DWORD PTR 0[rbp+rax*4]
	add	eax, edx
	mov	DWORD PTR 648[rbp], eax
	add	DWORD PTR 652[rbp], 1
.L84:
	mov	eax, DWORD PTR 652[rbp]
	cmp	eax, DWORD PTR 696[rbp]
	jl	.L85
	mov	eax, DWORD PTR 648[rbp]
	lea	edx, [rax+rax]
	mov	eax, DWORD PTR 652[rbp]
	cdqe
	mov	eax, DWORD PTR 0[rbp+rax*4]
	add	eax, edx
	mov	DWORD PTR 648[rbp], eax
	mov	DWORD PTR 652[rbp], 0
	jmp	.L86
.L87:
	mov	eax, DWORD PTR 652[rbp]
	mov	r9d, eax
	mov	r8, QWORD PTR -80[rbp]
	mov	eax, DWORD PTR 652[rbp]
	movsx	rdx, eax
	mov	rax, QWORD PTR 680[rbp]
	add	rax, rdx
	movzx	eax, BYTE PTR [rax]
	movzx	edx, al
	movsx	rax, edx
	mov	eax, DWORD PTR -64[rbp+rax*4]
	lea	ecx, 1[rax]
	movsx	rdx, edx
	mov	DWORD PTR -64[rbp+rdx*4], ecx
	cdqe
	add	rax, rax
	add	rax, r8
	mov	WORD PTR [rax], r9w
	add	DWORD PTR 652[rbp], 1
.L86:
	mov	eax, DWORD PTR 652[rbp]
	cmp	eax, DWORD PTR 704[rbp]
	jl	.L87
	mov	rax, QWORD PTR -80[rbp]
	mov	edx, DWORD PTR -64[rbp]
	movsx	rdx, edx
	add	rdx, rdx
	add	rax, rdx
	mov	QWORD PTR -80[rbp], rax
	mov	eax, DWORD PTR 696[rbp]
	mov	edx, 1
	mov	ecx, eax
	sal	edx, cl
	mov	eax, edx
	cmp	DWORD PTR 648[rbp], eax
	jge	.L88
	mov	DWORD PTR 652[rbp], 0
	jmp	.L89
.L90:
	mov	eax, DWORD PTR 652[rbp]
	cdqe
	lea	rdx, 0[0+rax*4]
	mov	rax, QWORD PTR 672[rbp]
	add	rax, rdx
	mov	DWORD PTR [rax], 1
	add	DWORD PTR 652[rbp], 1
.L89:
	mov	eax, DWORD PTR 688[rbp]
	mov	edx, 1
	mov	ecx, eax
	sal	edx, cl
	mov	eax, edx
	cmp	DWORD PTR 652[rbp], eax
	jl	.L90
	jmp	.L81
.L88:
	mov	r8, rbp
	mov	ecx, DWORD PTR 688[rbp]
	mov	rdx, QWORD PTR 672[rbp]
	lea	rax, -96[rbp]
	mov	r9, r8
	mov	r8d, ecx
	mov	rcx, rax
	call	_ZL15sinfl_build_tblP9sinfl_genPjiPKi
	test	eax, eax
	sete	al
	test	al, al
	je	.L81
	mov	r8, rbp
	mov	ecx, DWORD PTR 688[rbp]
	mov	rdx, QWORD PTR 672[rbp]
	lea	rax, -96[rbp]
	mov	r9, r8
	mov	r8d, ecx
	mov	rcx, rax
	call	_ZL18sinfl_build_subtblP9sinfl_genPjiPKi
	nop
.L81:
	add	rsp, 784
	pop	rbp
	ret
	.seh_endproc
	.def	_ZL12sinfl_decodeP5sinflPKji;	.scl	3;	.type	32;	.endef
	.seh_proc	_ZL12sinfl_decodeP5sinflPKji
_ZL12sinfl_decodeP5sinflPKji:
.LFB7978:
	push	rbp
	.seh_pushreg	rbp
	mov	rbp, rsp
	.seh_setframe	rbp, 0
	sub	rsp, 48
	.seh_stackalloc	48
	.seh_endprologue
	mov	QWORD PTR 16[rbp], rcx
	mov	QWORD PTR 24[rbp], rdx
	mov	DWORD PTR 32[rbp], r8d
	mov	edx, DWORD PTR 32[rbp]
	mov	rax, QWORD PTR 16[rbp]
	mov	rcx, rax
	call	_ZL10sinfl_peekP5sinfli
	mov	DWORD PTR -8[rbp], eax
	mov	eax, DWORD PTR -8[rbp]
	cdqe
	lea	rdx, 0[0+rax*4]
	mov	rax, QWORD PTR 24[rbp]
	add	rax, rdx
	mov	eax, DWORD PTR [rax]
	mov	DWORD PTR -4[rbp], eax
	mov	eax, DWORD PTR -4[rbp]
	and	eax, 16
	test	eax, eax
	je	.L94
	mov	eax, DWORD PTR -4[rbp]
	and	eax, 15
	mov	DWORD PTR -12[rbp], eax
	mov	edx, DWORD PTR 32[rbp]
	mov	rax, QWORD PTR 16[rbp]
	mov	rcx, rax
	call	_ZL9sinfl_eatP5sinfli
	mov	edx, DWORD PTR -12[rbp]
	mov	rax, QWORD PTR 16[rbp]
	mov	rcx, rax
	call	_ZL10sinfl_peekP5sinfli
	mov	DWORD PTR -8[rbp], eax
	mov	eax, DWORD PTR -4[rbp]
	shr	eax, 16
	mov	edx, eax
	mov	eax, DWORD PTR -8[rbp]
	add	eax, edx
	mov	eax, eax
	lea	rdx, 0[0+rax*4]
	mov	rax, QWORD PTR 24[rbp]
	add	rax, rdx
	mov	eax, DWORD PTR [rax]
	mov	DWORD PTR -4[rbp], eax
.L94:
	mov	eax, DWORD PTR -4[rbp]
	and	eax, 15
	mov	edx, eax
	mov	rax, QWORD PTR 16[rbp]
	mov	rcx, rax
	call	_ZL9sinfl_eatP5sinfli
	mov	eax, DWORD PTR -4[rbp]
	shr	eax, 16
	and	eax, 4095
	add	rsp, 48
	pop	rbp
	ret
	.seh_endproc
	.section .rdata,"dr"
	.align 16
_ZZL16sinfl_decompressPhiPKhiE5order:
	.ascii "\20\21\22\0\10\7\11\6\12\5\13\4\14\3\15\2\16\1\17"
	.align 32
_ZZL16sinfl_decompressPhiPKhiE5dbase:
	.word	1
	.word	2
	.word	3
	.word	4
	.word	5
	.word	7
	.word	9
	.word	13
	.word	17
	.word	25
	.word	33
	.word	49
	.word	65
	.word	97
	.word	129
	.word	193
	.word	257
	.word	385
	.word	513
	.word	769
	.word	1025
	.word	1537
	.word	2049
	.word	3073
	.word	4097
	.word	6145
	.word	8193
	.word	12289
	.word	16385
	.word	24577
	.space 4
	.align 32
_ZZL16sinfl_decompressPhiPKhiE5dbits:
	.ascii "\0\0\0\0\1\1\2\2\3\3\4\4\5\5\6\6\7\7\10\10\11\11\12\12\13\13\14\14\15\15\0\0"
	.align 32
_ZZL16sinfl_decompressPhiPKhiE5lbase:
	.word	3
	.word	4
	.word	5
	.word	6
	.word	7
	.word	8
	.word	9
	.word	10
	.word	11
	.word	13
	.word	15
	.word	17
	.word	19
	.word	23
	.word	27
	.word	31
	.word	35
	.word	43
	.word	51
	.word	59
	.word	67
	.word	83
	.word	99
	.word	115
	.word	131
	.word	163
	.word	195
	.word	227
	.word	258
	.word	0
	.word	0
	.align 16
_ZZL16sinfl_decompressPhiPKhiE5lbits:
	.ascii "\0\0\0\0\0\0\0\0\1\1\1\1\2\2\2\2\3\3\3\3\4\4\4\4\5\5\5\5\0\0\0"
	.text
	.def	_ZL16sinfl_decompressPhiPKhi;	.scl	3;	.type	32;	.endef
	.seh_proc	_ZL16sinfl_decompressPhiPKhi
_ZL16sinfl_decompressPhiPKhi:
.LFB7979:
	push	rbp
	.seh_pushreg	rbp
	push	r15
	.seh_pushreg	r15
	push	r14
	.seh_pushreg	r14
	push	r13
	.seh_pushreg	r13
	push	r12
	.seh_pushreg	r12
	push	rdi
	.seh_pushreg	rdi
	push	rsi
	.seh_pushreg	rsi
	push	rbx
	.seh_pushreg	rbx
	mov	eax, 8088
	call	___chkstk_ms
	sub	rsp, rax
	.seh_stackalloc	8088
	lea	rbp, 128[rsp]
	.seh_setframe	rbp, 128
	.seh_endprologue
	mov	QWORD PTR 8032[rbp], rcx
	mov	DWORD PTR 8040[rbp], edx
	mov	QWORD PTR 8048[rbp], r8
	mov	DWORD PTR 8056[rbp], r9d
	mov	eax, DWORD PTR 8040[rbp]
	movsx	rdx, eax
	mov	rax, QWORD PTR 8032[rbp]
	add	rax, rdx
	mov	QWORD PTR 7920[rbp], rax
	mov	eax, DWORD PTR 8056[rbp]
	movsx	rdx, eax
	mov	rax, QWORD PTR 8048[rbp]
	add	rax, rdx
	mov	QWORD PTR 7912[rbp], rax
	mov	rax, QWORD PTR 8032[rbp]
	mov	QWORD PTR 7904[rbp], rax
	mov	DWORD PTR 7948[rbp], 0
	lea	rdx, 848[rbp]
	mov	eax, 0
	mov	ecx, 871
	mov	rdi, rdx
	rep stosq
	mov	DWORD PTR 7944[rbp], 0
	mov	rax, QWORD PTR 8048[rbp]
	mov	QWORD PTR 848[rbp], rax
.L156:
	mov	eax, DWORD PTR 7948[rbp]
	cmp	eax, 4
	ja	.L156
	mov	eax, eax
	lea	rdx, 0[0+rax*4]
	lea	rax, .L99[rip]
	mov	eax, DWORD PTR [rdx+rax]
	cdqe
	lea	rdx, .L99[rip]
	add	rax, rdx
	jmp	rax
	.section .rdata,"dr"
	.align 4
.L99:
	.long	.L103-.L99
	.long	.L102-.L99
	.long	.L101-.L99
	.long	.L100-.L99
	.long	.L155-.L99
	.text
.L103:
	mov	DWORD PTR 7844[rbp], 0
	lea	rax, 848[rbp]
	mov	rcx, rax
	call	_ZL12sinfl_refillP5sinfl
	lea	rax, 848[rbp]
	mov	edx, 1
	mov	rcx, rax
	call	_ZL10sinfl__getP5sinfli
	mov	DWORD PTR 7944[rbp], eax
	lea	rax, 848[rbp]
	mov	edx, 2
	mov	rcx, rax
	call	_ZL10sinfl__getP5sinfli
	mov	DWORD PTR 7844[rbp], eax
	cmp	DWORD PTR 7844[rbp], 2
	je	.L104
	cmp	DWORD PTR 7844[rbp], 2
	jg	.L105
	cmp	DWORD PTR 7844[rbp], 0
	je	.L106
	cmp	DWORD PTR 7844[rbp], 1
	je	.L107
.L105:
	mov	rax, QWORD PTR 8032[rbp]
	sub	rax, QWORD PTR 7904[rbp]
	jmp	.L157
.L106:
	mov	DWORD PTR 7948[rbp], 1
	jmp	.L109
.L107:
	mov	DWORD PTR 7948[rbp], 2
	jmp	.L109
.L104:
	mov	DWORD PTR 7948[rbp], 3
	nop
.L109:
	jmp	.L97
.L102:
	lea	rax, 848[rbp]
	mov	rcx, rax
	call	_ZL12sinfl_refillP5sinfl
	mov	eax, DWORD PTR 864[rbp]
	and	eax, 7
	mov	edx, eax
	lea	rax, 848[rbp]
	mov	rcx, rax
	call	_ZL10sinfl__getP5sinfli
	lea	rax, 848[rbp]
	mov	edx, 16
	mov	rcx, rax
	call	_ZL10sinfl__getP5sinfli
	mov	DWORD PTR 7852[rbp], eax
	lea	rax, 848[rbp]
	mov	edx, 16
	mov	rcx, rax
	call	_ZL10sinfl__getP5sinfli
	mov	DWORD PTR 7848[rbp], eax
	sub	QWORD PTR 8048[rbp], 2
	mov	DWORD PTR 864[rbp], 0
	mov	eax, DWORD PTR 7852[rbp]
	movsx	rdx, eax
	mov	rax, QWORD PTR 7912[rbp]
	sub	rax, QWORD PTR 8048[rbp]
	cmp	rdx, rax
	jg	.L110
	cmp	DWORD PTR 7852[rbp], 0
	jne	.L111
.L110:
	mov	rax, QWORD PTR 8032[rbp]
	sub	rax, QWORD PTR 7904[rbp]
	jmp	.L157
.L111:
	mov	eax, DWORD PTR 7852[rbp]
	movsx	rcx, eax
	mov	rdx, QWORD PTR 8048[rbp]
	mov	rax, QWORD PTR 8032[rbp]
	mov	r8, rcx
	mov	rcx, rax
	call	memcpy
	mov	eax, DWORD PTR 7852[rbp]
	cdqe
	add	QWORD PTR 8048[rbp], rax
	mov	eax, DWORD PTR 7852[rbp]
	cdqe
	add	QWORD PTR 8032[rbp], rax
	mov	DWORD PTR 7948[rbp], 0
	jmp	.L97
.L101:
	mov	DWORD PTR 7940[rbp], 0
	jmp	.L112
.L113:
	mov	eax, DWORD PTR 7940[rbp]
	cdqe
	mov	BYTE PTR 288[rbp+rax], 8
	add	DWORD PTR 7940[rbp], 1
.L112:
	cmp	DWORD PTR 7940[rbp], 143
	jle	.L113
	mov	DWORD PTR 7940[rbp], 144
	jmp	.L114
.L115:
	mov	eax, DWORD PTR 7940[rbp]
	cdqe
	mov	BYTE PTR 288[rbp+rax], 9
	add	DWORD PTR 7940[rbp], 1
.L114:
	cmp	DWORD PTR 7940[rbp], 255
	jle	.L115
	mov	DWORD PTR 7940[rbp], 256
	jmp	.L116
.L117:
	mov	eax, DWORD PTR 7940[rbp]
	cdqe
	mov	BYTE PTR 288[rbp+rax], 7
	add	DWORD PTR 7940[rbp], 1
.L116:
	cmp	DWORD PTR 7940[rbp], 279
	jle	.L117
	mov	DWORD PTR 7940[rbp], 280
	jmp	.L118
.L119:
	mov	eax, DWORD PTR 7940[rbp]
	cdqe
	mov	BYTE PTR 288[rbp+rax], 8
	add	DWORD PTR 7940[rbp], 1
.L118:
	cmp	DWORD PTR 7940[rbp], 287
	jle	.L119
	mov	DWORD PTR 7940[rbp], 0
	jmp	.L120
.L121:
	mov	eax, DWORD PTR 7940[rbp]
	add	eax, 288
	cdqe
	mov	BYTE PTR 288[rbp+rax], 5
	add	DWORD PTR 7940[rbp], 1
.L120:
	cmp	DWORD PTR 7940[rbp], 31
	jle	.L121
	lea	rax, 288[rbp]
	lea	rdx, 848[rbp]
	lea	rcx, 20[rdx]
	mov	DWORD PTR 32[rsp], 288
	mov	r9d, 15
	mov	r8d, 10
	mov	rdx, rax
	call	_ZL11sinfl_buildPjPhiii
	lea	rax, 288[rbp]
	add	rax, 288
	lea	rdx, 848[rbp]
	lea	rcx, 5356[rdx]
	mov	DWORD PTR 32[rsp], 32
	mov	r9d, 15
	mov	r8d, 8
	mov	rdx, rax
	call	_ZL11sinfl_buildPjPhiii
	mov	DWORD PTR 7948[rbp], 4
	jmp	.L97
.L100:
	mov	QWORD PTR 816[rbp], 0
	mov	QWORD PTR 824[rbp], 0
	mov	DWORD PTR 831[rbp], 0
	lea	rax, 848[rbp]
	mov	rcx, rax
	call	_ZL12sinfl_refillP5sinfl
	lea	rax, 848[rbp]
	mov	edx, 5
	mov	rcx, rax
	call	_ZL10sinfl__getP5sinfli
	add	eax, 257
	mov	DWORD PTR 7868[rbp], eax
	lea	rax, 848[rbp]
	mov	edx, 5
	mov	rcx, rax
	call	_ZL10sinfl__getP5sinfli
	add	eax, 1
	mov	DWORD PTR 7864[rbp], eax
	lea	rax, 848[rbp]
	mov	edx, 4
	mov	rcx, rax
	call	_ZL10sinfl__getP5sinfli
	add	eax, 4
	mov	DWORD PTR 7860[rbp], eax
	mov	DWORD PTR 7936[rbp], 0
	jmp	.L122
.L123:
	lea	rax, 848[rbp]
	mov	edx, 3
	mov	rcx, rax
	call	_ZL9sinfl_getP5sinfli
	mov	ecx, eax
	mov	eax, DWORD PTR 7936[rbp]
	cdqe
	lea	rdx, _ZZL16sinfl_decompressPhiPKhiE5order[rip]
	movzx	eax, BYTE PTR [rax+rdx]
	movzx	eax, al
	mov	edx, ecx
	cdqe
	mov	BYTE PTR 816[rbp+rax], dl
	add	DWORD PTR 7936[rbp], 1
.L122:
	mov	eax, DWORD PTR 7936[rbp]
	cmp	eax, DWORD PTR 7860[rbp]
	jl	.L123
	lea	rdx, 816[rbp]
	lea	rax, 288[rbp]
	mov	DWORD PTR 32[rsp], 19
	mov	r9d, 7
	mov	r8d, 7
	mov	rcx, rax
	call	_ZL11sinfl_buildPjPhiii
	mov	DWORD PTR 7936[rbp], 0
	jmp	.L124
.L135:
	lea	rax, 848[rbp]
	mov	rcx, rax
	call	_ZL12sinfl_refillP5sinfl
	lea	rdx, 288[rbp]
	lea	rax, 848[rbp]
	mov	r8d, 7
	mov	rcx, rax
	call	_ZL12sinfl_decodeP5sinflPKji
	mov	DWORD PTR 7856[rbp], eax
	cmp	DWORD PTR 7856[rbp], 18
	je	.L125
	cmp	DWORD PTR 7856[rbp], 18
	jg	.L126
	cmp	DWORD PTR 7856[rbp], 16
	je	.L127
	cmp	DWORD PTR 7856[rbp], 17
	je	.L128
.L126:
	mov	eax, DWORD PTR 7856[rbp]
	mov	ecx, eax
	mov	eax, DWORD PTR 7936[rbp]
	lea	edx, 1[rax]
	mov	DWORD PTR 7936[rbp], edx
	cdqe
	mov	BYTE PTR -32[rbp+rax], cl
	jmp	.L124
.L127:
	lea	rax, 848[rbp]
	mov	edx, 2
	mov	rcx, rax
	call	_ZL9sinfl_getP5sinfli
	add	eax, 3
	mov	DWORD PTR 7932[rbp], eax
	jmp	.L129
.L130:
	mov	eax, DWORD PTR 7936[rbp]
	sub	eax, 1
	cdqe
	movzx	edx, BYTE PTR -32[rbp+rax]
	mov	eax, DWORD PTR 7936[rbp]
	cdqe
	mov	BYTE PTR -32[rbp+rax], dl
	sub	DWORD PTR 7932[rbp], 1
	add	DWORD PTR 7936[rbp], 1
.L129:
	cmp	DWORD PTR 7932[rbp], 0
	jne	.L130
	jmp	.L124
.L128:
	lea	rax, 848[rbp]
	mov	edx, 3
	mov	rcx, rax
	call	_ZL9sinfl_getP5sinfli
	add	eax, 3
	mov	DWORD PTR 7932[rbp], eax
	jmp	.L131
.L132:
	mov	eax, DWORD PTR 7936[rbp]
	cdqe
	mov	BYTE PTR -32[rbp+rax], 0
	sub	DWORD PTR 7932[rbp], 1
	add	DWORD PTR 7936[rbp], 1
.L131:
	cmp	DWORD PTR 7932[rbp], 0
	jne	.L132
	jmp	.L124
.L125:
	lea	rax, 848[rbp]
	mov	edx, 7
	mov	rcx, rax
	call	_ZL9sinfl_getP5sinfli
	add	eax, 11
	mov	DWORD PTR 7932[rbp], eax
	jmp	.L133
.L134:
	mov	eax, DWORD PTR 7936[rbp]
	cdqe
	mov	BYTE PTR -32[rbp+rax], 0
	sub	DWORD PTR 7932[rbp], 1
	add	DWORD PTR 7936[rbp], 1
.L133:
	cmp	DWORD PTR 7932[rbp], 0
	jne	.L134
	nop
.L124:
	mov	edx, DWORD PTR 7868[rbp]
	mov	eax, DWORD PTR 7864[rbp]
	add	eax, edx
	cmp	DWORD PTR 7936[rbp], eax
	jl	.L135
	lea	rax, -32[rbp]
	lea	rdx, 848[rbp]
	lea	rcx, 20[rdx]
	mov	edx, DWORD PTR 7868[rbp]
	mov	DWORD PTR 32[rsp], edx
	mov	r9d, 15
	mov	r8d, 10
	mov	rdx, rax
	call	_ZL11sinfl_buildPjPhiii
	mov	eax, DWORD PTR 7868[rbp]
	cdqe
	lea	rdx, -32[rbp]
	add	rdx, rax
	lea	rax, 848[rbp]
	add	rax, 5356
	mov	ecx, DWORD PTR 7864[rbp]
	mov	DWORD PTR 32[rsp], ecx
	mov	r9d, 15
	mov	r8d, 8
	mov	rcx, rax
	call	_ZL11sinfl_buildPjPhiii
	mov	DWORD PTR 7948[rbp], 4
	jmp	.L97
.L155:
	lea	rax, 848[rbp]
	mov	rcx, rax
	call	_ZL12sinfl_refillP5sinfl
	lea	rax, 848[rbp]
	lea	rdx, 20[rax]
	lea	rax, 848[rbp]
	mov	r8d, 10
	mov	rcx, rax
	call	_ZL12sinfl_decodeP5sinflPKji
	mov	DWORD PTR 7928[rbp], eax
	cmp	DWORD PTR 7928[rbp], 255
	jg	.L136
	mov	rax, QWORD PTR 8032[rbp]
	cmp	rax, QWORD PTR 7920[rbp]
	setnb	al
	movzx	eax, al
	test	eax, eax
	je	.L137
	mov	rax, QWORD PTR 8032[rbp]
	sub	rax, QWORD PTR 7904[rbp]
	jmp	.L157
.L137:
	mov	eax, DWORD PTR 7928[rbp]
	mov	ecx, eax
	mov	rax, QWORD PTR 8032[rbp]
	lea	rdx, 1[rax]
	mov	QWORD PTR 8032[rbp], rdx
	mov	BYTE PTR [rax], cl
	lea	rax, 848[rbp]
	lea	rdx, 20[rax]
	lea	rax, 848[rbp]
	mov	r8d, 10
	mov	rcx, rax
	call	_ZL12sinfl_decodeP5sinflPKji
	mov	DWORD PTR 7928[rbp], eax
	cmp	DWORD PTR 7928[rbp], 255
	jg	.L136
	mov	eax, DWORD PTR 7928[rbp]
	mov	ecx, eax
	mov	rax, QWORD PTR 8032[rbp]
	lea	rdx, 1[rax]
	mov	QWORD PTR 8032[rbp], rdx
	mov	BYTE PTR [rax], cl
	jmp	.L138
.L136:
	cmp	DWORD PTR 7928[rbp], 256
	sete	al
	movzx	eax, al
	test	eax, eax
	je	.L139
	cmp	DWORD PTR 7944[rbp], 0
	je	.L140
	mov	rax, QWORD PTR 8032[rbp]
	sub	rax, QWORD PTR 7904[rbp]
	jmp	.L157
.L140:
	mov	DWORD PTR 7948[rbp], 0
	nop
	jmp	.L97
.L139:
	sub	DWORD PTR 7928[rbp], 257
	mov	eax, DWORD PTR 7928[rbp]
	cdqe
	lea	rdx, _ZZL16sinfl_decompressPhiPKhiE5lbits[rip]
	movzx	eax, BYTE PTR [rax+rdx]
	movzx	edx, al
	lea	rax, 848[rbp]
	mov	rcx, rax
	call	_ZL10sinfl__getP5sinfli
	mov	edx, DWORD PTR 7928[rbp]
	movsx	rdx, edx
	lea	rcx, [rdx+rdx]
	lea	rdx, _ZZL16sinfl_decompressPhiPKhiE5lbase[rip]
	movzx	edx, WORD PTR [rcx+rdx]
	movsx	edx, dx
	add	eax, edx
	mov	DWORD PTR 7900[rbp], eax
	lea	rax, 848[rbp]
	lea	rdx, 5356[rax]
	lea	rax, 848[rbp]
	mov	r8d, 8
	mov	rcx, rax
	call	_ZL12sinfl_decodeP5sinflPKji
	mov	DWORD PTR 7896[rbp], eax
	mov	eax, DWORD PTR 7896[rbp]
	cdqe
	lea	rdx, _ZZL16sinfl_decompressPhiPKhiE5dbits[rip]
	movzx	eax, BYTE PTR [rax+rdx]
	movzx	edx, al
	lea	rax, 848[rbp]
	mov	rcx, rax
	call	_ZL10sinfl__getP5sinfli
	mov	edx, DWORD PTR 7896[rbp]
	movsx	rdx, edx
	lea	rcx, [rdx+rdx]
	lea	rdx, _ZZL16sinfl_decompressPhiPKhiE5dbase[rip]
	movzx	edx, WORD PTR [rcx+rdx]
	movsx	edx, dx
	add	eax, edx
	mov	DWORD PTR 7892[rbp], eax
	mov	rax, QWORD PTR 8032[rbp]
	mov	QWORD PTR 808[rbp], rax
	mov	eax, DWORD PTR 7892[rbp]
	cdqe
	neg	rax
	mov	rdx, rax
	mov	rax, QWORD PTR 8032[rbp]
	add	rax, rdx
	mov	QWORD PTR 800[rbp], rax
	mov	rax, QWORD PTR 8032[rbp]
	sub	rax, QWORD PTR 7904[rbp]
	cmp	DWORD PTR 7892[rbp], eax
	setg	al
	movzx	eax, al
	test	eax, eax
	je	.L142
	mov	rax, QWORD PTR 8032[rbp]
	sub	rax, QWORD PTR 7904[rbp]
	jmp	.L157
.L142:
	mov	eax, DWORD PTR 7900[rbp]
	cdqe
	add	QWORD PTR 8032[rbp], rax
	mov	rax, QWORD PTR 7920[rbp]
	sub	rax, QWORD PTR 8032[rbp]
	cmp	rax, 47
	setg	al
	movzx	eax, al
	test	eax, eax
	je	.L143
	cmp	DWORD PTR 7892[rbp], 15
	jle	.L144
	lea	rdx, 800[rbp]
	lea	rax, 808[rbp]
	mov	rcx, rax
	call	_ZL13sinfl_copy128PPhS0_
	lea	rdx, 800[rbp]
	lea	rax, 808[rbp]
	mov	rcx, rax
	call	_ZL13sinfl_copy128PPhS0_
.L145:
	lea	rdx, 800[rbp]
	lea	rax, 808[rbp]
	mov	rcx, rax
	call	_ZL13sinfl_copy128PPhS0_
	mov	rax, QWORD PTR 808[rbp]
	cmp	rax, QWORD PTR 8032[rbp]
	jb	.L145
	jmp	.L155
.L144:
	cmp	DWORD PTR 7892[rbp], 7
	jle	.L147
	lea	rdx, 800[rbp]
	lea	rax, 808[rbp]
	mov	rcx, rax
	call	_ZL12sinfl_copy64PPhS0_
	lea	rdx, 800[rbp]
	lea	rax, 808[rbp]
	mov	rcx, rax
	call	_ZL12sinfl_copy64PPhS0_
.L148:
	lea	rdx, 800[rbp]
	lea	rax, 808[rbp]
	mov	rcx, rax
	call	_ZL12sinfl_copy64PPhS0_
	mov	rax, QWORD PTR 808[rbp]
	cmp	rax, QWORD PTR 8032[rbp]
	jb	.L148
	jmp	.L155
.L147:
	cmp	DWORD PTR 7892[rbp], 1
	jne	.L149
	mov	rax, QWORD PTR 800[rbp]
	movzx	eax, BYTE PTR [rax]
	movsx	eax, al
	mov	BYTE PTR 7843[rbp], al
	movsx	edx, BYTE PTR 7843[rbp]
	movsx	ecx, BYTE PTR 7843[rbp]
	movsx	r8d, BYTE PTR 7843[rbp]
	movsx	r9d, BYTE PTR 7843[rbp]
	movsx	r10d, BYTE PTR 7843[rbp]
	movsx	r11d, BYTE PTR 7843[rbp]
	movsx	ebx, BYTE PTR 7843[rbp]
	movsx	esi, BYTE PTR 7843[rbp]
	movsx	edi, BYTE PTR 7843[rbp]
	movsx	r12d, BYTE PTR 7843[rbp]
	movsx	r13d, BYTE PTR 7843[rbp]
	movsx	r14d, BYTE PTR 7843[rbp]
	movsx	r15d, BYTE PTR 7843[rbp]
	movsx	eax, BYTE PTR 7843[rbp]
	mov	DWORD PTR -64[rbp], eax
	movsx	eax, BYTE PTR 7843[rbp]
	mov	DWORD PTR -68[rbp], eax
	movsx	eax, BYTE PTR 7843[rbp]
	mov	BYTE PTR 7842[rbp], al
	movzx	eax, BYTE PTR -68[rbp]
	mov	BYTE PTR 7841[rbp], al
	movzx	eax, BYTE PTR -64[rbp]
	mov	BYTE PTR 7840[rbp], al
	mov	BYTE PTR 7839[rbp], r15b
	mov	BYTE PTR 7838[rbp], r14b
	mov	BYTE PTR 7837[rbp], r13b
	mov	BYTE PTR 7836[rbp], r12b
	mov	BYTE PTR 7835[rbp], dil
	mov	BYTE PTR 7834[rbp], sil
	mov	BYTE PTR 7833[rbp], bl
	mov	BYTE PTR 7832[rbp], r11b
	mov	BYTE PTR 7831[rbp], r10b
	mov	BYTE PTR 7830[rbp], r9b
	mov	BYTE PTR 7829[rbp], r8b
	mov	BYTE PTR 7828[rbp], cl
	mov	BYTE PTR 7827[rbp], dl
	movzx	edx, BYTE PTR 7834[rbp]
	movzx	eax, BYTE PTR 7833[rbp]
	sal	rdx, 8
	or	rdx, rax
	movzx	eax, BYTE PTR 7832[rbp]
	sal	rdx, 8
	or	rdx, rax
	movzx	eax, BYTE PTR 7831[rbp]
	sal	rdx, 8
	or	rdx, rax
	movzx	eax, BYTE PTR 7830[rbp]
	sal	rdx, 8
	or	rdx, rax
	movzx	eax, BYTE PTR 7829[rbp]
	sal	rdx, 8
	or	rdx, rax
	movzx	eax, BYTE PTR 7828[rbp]
	sal	rdx, 8
	or	rdx, rax
	movzx	eax, BYTE PTR 7827[rbp]
	sal	rdx, 8
	mov	rcx, rdx
	or	rcx, rax
	movzx	edx, BYTE PTR 7842[rbp]
	movzx	eax, BYTE PTR 7841[rbp]
	sal	rdx, 8
	or	rdx, rax
	movzx	eax, BYTE PTR 7840[rbp]
	sal	rdx, 8
	or	rdx, rax
	movzx	eax, BYTE PTR 7839[rbp]
	sal	rdx, 8
	or	rdx, rax
	movzx	eax, BYTE PTR 7838[rbp]
	sal	rdx, 8
	or	rdx, rax
	movzx	eax, BYTE PTR 7837[rbp]
	sal	rdx, 8
	or	rdx, rax
	movzx	eax, BYTE PTR 7836[rbp]
	sal	rdx, 8
	or	rdx, rax
	movzx	eax, BYTE PTR 7835[rbp]
	sal	rdx, 8
	or	rax, rdx
	mov	QWORD PTR -64[rbp], rcx
	mov	QWORD PTR -56[rbp], rax
	movdqa	xmm0, XMMWORD PTR -64[rbp]
	nop
	movaps	XMMWORD PTR 7872[rbp], xmm0
	mov	rax, QWORD PTR 808[rbp]
	movdqa	xmm0, XMMWORD PTR 7872[rbp]
	movaps	XMMWORD PTR -48[rbp], xmm0
	lea	rdx, -48[rbp]
	mov	rcx, rax
	call	_ZL14sinfl_write128PhDv2_x
	mov	QWORD PTR 808[rbp], rax
	mov	rax, QWORD PTR 808[rbp]
	movdqa	xmm0, XMMWORD PTR 7872[rbp]
	movaps	XMMWORD PTR -48[rbp], xmm0
	lea	rdx, -48[rbp]
	mov	rcx, rax
	call	_ZL14sinfl_write128PhDv2_x
	mov	QWORD PTR 808[rbp], rax
.L152:
	mov	rax, QWORD PTR 808[rbp]
	movdqa	xmm0, XMMWORD PTR 7872[rbp]
	movaps	XMMWORD PTR -48[rbp], xmm0
	lea	rdx, -48[rbp]
	mov	rcx, rax
	call	_ZL14sinfl_write128PhDv2_x
	mov	QWORD PTR 808[rbp], rax
	mov	rax, QWORD PTR 808[rbp]
	cmp	rax, QWORD PTR 8032[rbp]
	jb	.L152
	jmp	.L155
.L149:
	mov	rax, QWORD PTR 800[rbp]
	lea	rdx, 1[rax]
	mov	QWORD PTR 800[rbp], rdx
	movzx	edx, BYTE PTR [rax]
	mov	rax, QWORD PTR 808[rbp]
	lea	rcx, 1[rax]
	mov	QWORD PTR 808[rbp], rcx
	mov	BYTE PTR [rax], dl
	mov	rax, QWORD PTR 800[rbp]
	lea	rdx, 1[rax]
	mov	QWORD PTR 800[rbp], rdx
	movzx	edx, BYTE PTR [rax]
	mov	rax, QWORD PTR 808[rbp]
	lea	rcx, 1[rax]
	mov	QWORD PTR 808[rbp], rcx
	mov	BYTE PTR [rax], dl
.L153:
	mov	rax, QWORD PTR 800[rbp]
	lea	rdx, 1[rax]
	mov	QWORD PTR 800[rbp], rdx
	movzx	edx, BYTE PTR [rax]
	mov	rax, QWORD PTR 808[rbp]
	lea	rcx, 1[rax]
	mov	QWORD PTR 808[rbp], rcx
	mov	BYTE PTR [rax], dl
	mov	rax, QWORD PTR 808[rbp]
	cmp	rax, QWORD PTR 8032[rbp]
	jb	.L153
	jmp	.L155
.L143:
	mov	rax, QWORD PTR 800[rbp]
	lea	rdx, 1[rax]
	mov	QWORD PTR 800[rbp], rdx
	movzx	edx, BYTE PTR [rax]
	mov	rax, QWORD PTR 808[rbp]
	lea	rcx, 1[rax]
	mov	QWORD PTR 808[rbp], rcx
	mov	BYTE PTR [rax], dl
	mov	rax, QWORD PTR 800[rbp]
	lea	rdx, 1[rax]
	mov	QWORD PTR 800[rbp], rdx
	movzx	edx, BYTE PTR [rax]
	mov	rax, QWORD PTR 808[rbp]
	lea	rcx, 1[rax]
	mov	QWORD PTR 808[rbp], rcx
	mov	BYTE PTR [rax], dl
.L154:
	mov	rax, QWORD PTR 800[rbp]
	lea	rdx, 1[rax]
	mov	QWORD PTR 800[rbp], rdx
	movzx	edx, BYTE PTR [rax]
	mov	rax, QWORD PTR 808[rbp]
	lea	rcx, 1[rax]
	mov	QWORD PTR 808[rbp], rcx
	mov	BYTE PTR [rax], dl
	mov	rax, QWORD PTR 808[rbp]
	cmp	rax, QWORD PTR 8032[rbp]
	jb	.L154
.L138:
	jmp	.L155
.L97:
	jmp	.L156
.L157:
	add	rsp, 8088
	pop	rbx
	pop	rsi
	pop	rdi
	pop	r12
	pop	r13
	pop	r14
	pop	r15
	pop	rbp
	ret
	.seh_endproc
	.globl	sinflate
	.def	sinflate;	.scl	2;	.type	32;	.endef
	.seh_proc	sinflate
sinflate:
.LFB7980:
	push	rbp
	.seh_pushreg	rbp
	mov	rbp, rsp
	.seh_setframe	rbp, 0
	sub	rsp, 32
	.seh_stackalloc	32
	.seh_endprologue
	mov	QWORD PTR 16[rbp], rcx
	mov	DWORD PTR 24[rbp], edx
	mov	QWORD PTR 32[rbp], r8
	mov	DWORD PTR 40[rbp], r9d
	mov	r8d, DWORD PTR 40[rbp]
	mov	rcx, QWORD PTR 32[rbp]
	mov	edx, DWORD PTR 24[rbp]
	mov	rax, QWORD PTR 16[rbp]
	mov	r9d, r8d
	mov	r8, rcx
	mov	rcx, rax
	call	_ZL16sinfl_decompressPhiPKhi
	add	rsp, 32
	pop	rbp
	ret
	.seh_endproc
	.def	_ZL13sinfl_adler32jPKhi;	.scl	3;	.type	32;	.endef
	.seh_proc	_ZL13sinfl_adler32jPKhi
_ZL13sinfl_adler32jPKhi:
.LFB7981:
	push	rbp
	.seh_pushreg	rbp
	mov	rbp, rsp
	.seh_setframe	rbp, 0
	sub	rsp, 32
	.seh_stackalloc	32
	.seh_endprologue
	mov	DWORD PTR 16[rbp], ecx
	mov	QWORD PTR 24[rbp], rdx
	mov	DWORD PTR 32[rbp], r8d
	mov	DWORD PTR -20[rbp], 65521
	mov	eax, DWORD PTR 16[rbp]
	movzx	eax, ax
	mov	DWORD PTR -4[rbp], eax
	mov	eax, DWORD PTR 16[rbp]
	shr	eax, 16
	mov	DWORD PTR -8[rbp], eax
	mov	edx, DWORD PTR 32[rbp]
	movsx	rax, edx
	imul	rax, rax, 1584310703
	shr	rax, 32
	sar	eax, 11
	mov	ecx, edx
	sar	ecx, 31
	sub	eax, ecx
	imul	ecx, eax, 5552
	mov	eax, edx
	sub	eax, ecx
	mov	DWORD PTR -12[rbp], eax
	jmp	.L161
.L166:
	mov	DWORD PTR -16[rbp], 0
	jmp	.L162
.L163:
	mov	rax, QWORD PTR 24[rbp]
	movzx	eax, BYTE PTR [rax]
	movzx	eax, al
	add	DWORD PTR -4[rbp], eax
	mov	eax, DWORD PTR -4[rbp]
	add	DWORD PTR -8[rbp], eax
	mov	rax, QWORD PTR 24[rbp]
	add	rax, 1
	movzx	eax, BYTE PTR [rax]
	movzx	eax, al
	add	DWORD PTR -4[rbp], eax
	mov	eax, DWORD PTR -4[rbp]
	add	DWORD PTR -8[rbp], eax
	mov	rax, QWORD PTR 24[rbp]
	add	rax, 2
	movzx	eax, BYTE PTR [rax]
	movzx	eax, al
	add	DWORD PTR -4[rbp], eax
	mov	eax, DWORD PTR -4[rbp]
	add	DWORD PTR -8[rbp], eax
	mov	rax, QWORD PTR 24[rbp]
	add	rax, 3
	movzx	eax, BYTE PTR [rax]
	movzx	eax, al
	add	DWORD PTR -4[rbp], eax
	mov	eax, DWORD PTR -4[rbp]
	add	DWORD PTR -8[rbp], eax
	mov	rax, QWORD PTR 24[rbp]
	add	rax, 4
	movzx	eax, BYTE PTR [rax]
	movzx	eax, al
	add	DWORD PTR -4[rbp], eax
	mov	eax, DWORD PTR -4[rbp]
	add	DWORD PTR -8[rbp], eax
	mov	rax, QWORD PTR 24[rbp]
	add	rax, 5
	movzx	eax, BYTE PTR [rax]
	movzx	eax, al
	add	DWORD PTR -4[rbp], eax
	mov	eax, DWORD PTR -4[rbp]
	add	DWORD PTR -8[rbp], eax
	mov	rax, QWORD PTR 24[rbp]
	add	rax, 6
	movzx	eax, BYTE PTR [rax]
	movzx	eax, al
	add	DWORD PTR -4[rbp], eax
	mov	eax, DWORD PTR -4[rbp]
	add	DWORD PTR -8[rbp], eax
	mov	rax, QWORD PTR 24[rbp]
	add	rax, 7
	movzx	eax, BYTE PTR [rax]
	movzx	eax, al
	add	DWORD PTR -4[rbp], eax
	mov	eax, DWORD PTR -4[rbp]
	add	DWORD PTR -8[rbp], eax
	add	QWORD PTR 24[rbp], 8
	add	DWORD PTR -16[rbp], 8
.L162:
	mov	eax, DWORD PTR -16[rbp]
	add	eax, 7
	cmp	eax, DWORD PTR -12[rbp]
	jb	.L163
	jmp	.L164
.L165:
	mov	rax, QWORD PTR 24[rbp]
	lea	rdx, 1[rax]
	mov	QWORD PTR 24[rbp], rdx
	movzx	eax, BYTE PTR [rax]
	movzx	eax, al
	add	DWORD PTR -4[rbp], eax
	mov	eax, DWORD PTR -4[rbp]
	add	DWORD PTR -8[rbp], eax
	add	DWORD PTR -16[rbp], 1
.L164:
	mov	eax, DWORD PTR -16[rbp]
	cmp	eax, DWORD PTR -12[rbp]
	jb	.L165
	mov	edx, DWORD PTR -4[rbp]
	mov	ecx, edx
	mov	eax, 2147975281
	imul	rax, rcx
	shr	rax, 32
	shr	eax, 15
	imul	eax, eax, 65521
	sub	edx, eax
	mov	DWORD PTR -4[rbp], edx
	mov	edx, DWORD PTR -8[rbp]
	mov	ecx, edx
	mov	eax, 2147975281
	imul	rax, rcx
	shr	rax, 32
	shr	eax, 15
	imul	eax, eax, 65521
	sub	edx, eax
	mov	DWORD PTR -8[rbp], edx
	mov	eax, DWORD PTR 32[rbp]
	sub	eax, DWORD PTR -12[rbp]
	mov	DWORD PTR 32[rbp], eax
	mov	DWORD PTR -12[rbp], 5552
.L161:
	cmp	DWORD PTR 32[rbp], 0
	jne	.L166
	mov	eax, DWORD PTR -8[rbp]
	sal	eax, 16
	mov	edx, eax
	mov	eax, DWORD PTR -4[rbp]
	add	eax, edx
	add	rsp, 32
	pop	rbp
	ret
	.seh_endproc
	.globl	zsinflate
	.def	zsinflate;	.scl	2;	.type	32;	.endef
	.seh_proc	zsinflate
zsinflate:
.LFB7982:
	push	rbp
	.seh_pushreg	rbp
	mov	rbp, rsp
	.seh_setframe	rbp, 0
	sub	rsp, 64
	.seh_stackalloc	64
	.seh_endprologue
	mov	QWORD PTR 16[rbp], rcx
	mov	DWORD PTR 24[rbp], edx
	mov	QWORD PTR 32[rbp], r8
	mov	DWORD PTR 40[rbp], r9d
	mov	rax, QWORD PTR 32[rbp]
	mov	QWORD PTR -8[rbp], rax
	cmp	DWORD PTR 40[rbp], 5
	jle	.L169
	mov	eax, DWORD PTR 40[rbp]
	cdqe
	lea	rdx, -4[rax]
	mov	rax, QWORD PTR -8[rbp]
	add	rax, rdx
	mov	QWORD PTR -16[rbp], rax
	mov	rax, QWORD PTR -8[rbp]
	lea	r8, 2[rax]
	mov	ecx, DWORD PTR 40[rbp]
	mov	edx, DWORD PTR 24[rbp]
	mov	rax, QWORD PTR 16[rbp]
	mov	r9d, ecx
	mov	rcx, rax
	call	_ZL16sinfl_decompressPhiPKhi
	mov	DWORD PTR -20[rbp], eax
	mov	edx, DWORD PTR -20[rbp]
	mov	rax, QWORD PTR 16[rbp]
	mov	r8d, edx
	mov	rdx, rax
	mov	ecx, 1
	call	_ZL13sinfl_adler32jPKhi
	mov	DWORD PTR -24[rbp], eax
	mov	rax, QWORD PTR -16[rbp]
	movzx	eax, BYTE PTR [rax]
	movzx	eax, al
	sal	eax, 24
	mov	edx, eax
	mov	rax, QWORD PTR -16[rbp]
	add	rax, 1
	movzx	eax, BYTE PTR [rax]
	movzx	eax, al
	sal	eax, 16
	or	edx, eax
	mov	rax, QWORD PTR -16[rbp]
	add	rax, 2
	movzx	eax, BYTE PTR [rax]
	movzx	eax, al
	sal	eax, 8
	or	edx, eax
	mov	rax, QWORD PTR -16[rbp]
	add	rax, 3
	movzx	eax, BYTE PTR [rax]
	movzx	eax, al
	or	eax, edx
	mov	DWORD PTR -28[rbp], eax
	mov	eax, DWORD PTR -24[rbp]
	cmp	eax, DWORD PTR -28[rbp]
	jne	.L170
	mov	eax, DWORD PTR -20[rbp]
	jmp	.L172
.L170:
	mov	eax, -1
	jmp	.L172
.L169:
	mov	eax, -1
.L172:
	add	rsp, 64
	pop	rbp
	ret
	.seh_endproc
	.globl	_Z14getProcAddressPcS_
	.def	_Z14getProcAddressPcS_;	.scl	2;	.type	32;	.endef
	.seh_proc	_Z14getProcAddressPcS_
_Z14getProcAddressPcS_:
.LFB7983:
	push	rbp
	.seh_pushreg	rbp
	mov	rbp, rsp
	.seh_setframe	rbp, 0
	sub	rsp, 32
	.seh_stackalloc	32
	.seh_endprologue
	mov	QWORD PTR 16[rbp], rcx
	mov	QWORD PTR 24[rbp], rdx
	mov	rax, QWORD PTR 16[rbp]
	mov	rcx, rax
	mov	rax, QWORD PTR __imp_GetModuleHandleA[rip]
	call	rax
	mov	rcx, rax
	mov	rax, QWORD PTR 24[rbp]
	mov	rdx, rax
	mov	rax, QWORD PTR __imp_GetProcAddress[rip]
	call	rax
	add	rsp, 32
	pop	rbp
	ret
	.seh_endproc
	.section .rdata,"dr"
.LC3:
	.ascii "alloc failed!\12\0"
	.text
	.globl	_Z15allocExecutabley
	.def	_Z15allocExecutabley;	.scl	2;	.type	32;	.endef
	.seh_proc	_Z15allocExecutabley
_Z15allocExecutabley:
.LFB7984:
	push	rbp
	.seh_pushreg	rbp
	mov	rbp, rsp
	.seh_setframe	rbp, 0
	sub	rsp, 48
	.seh_stackalloc	48
	.seh_endprologue
	mov	QWORD PTR 16[rbp], rcx
	mov	QWORD PTR -8[rbp], 0
	mov	rax, QWORD PTR 16[rbp]
	mov	r9d, 64
	mov	r8d, 12288
	mov	rdx, rax
	mov	ecx, 0
	mov	rax, QWORD PTR __imp_VirtualAlloc[rip]
	call	rax
	mov	QWORD PTR -8[rbp], rax
	cmp	QWORD PTR -8[rbp], 0
	jne	.L176
	lea	rax, .LC3[rip]
	mov	rcx, rax
	call	_Z6printfPKcz
.L176:
	mov	rax, QWORD PTR -8[rbp]
	add	rsp, 48
	pop	rbp
	ret
	.seh_endproc
	.globl	_Z14freeExecutablePvy
	.def	_Z14freeExecutablePvy;	.scl	2;	.type	32;	.endef
	.seh_proc	_Z14freeExecutablePvy
_Z14freeExecutablePvy:
.LFB7985:
	push	rbp
	.seh_pushreg	rbp
	mov	rbp, rsp
	.seh_setframe	rbp, 0
	sub	rsp, 32
	.seh_stackalloc	32
	.seh_endprologue
	mov	QWORD PTR 16[rbp], rcx
	mov	QWORD PTR 24[rbp], rdx
	mov	rdx, QWORD PTR 24[rbp]
	mov	rax, QWORD PTR 16[rbp]
	mov	r8d, 32768
	mov	rcx, rax
	mov	rax, QWORD PTR __imp_VirtualFree[rip]
	call	rax
	cdqe
	mov	QWORD PTR 16[rbp], rax
	nop
	add	rsp, 32
	pop	rbp
	ret
	.seh_endproc
	.globl	_Z15RegisterCommandPcPFi10CallParamsE
	.def	_Z15RegisterCommandPcPFi10CallParamsE;	.scl	2;	.type	32;	.endef
	.seh_proc	_Z15RegisterCommandPcPFi10CallParamsE
_Z15RegisterCommandPcPFi10CallParamsE:
.LFB7986:
	push	rbp
	.seh_pushreg	rbp
	mov	rbp, rsp
	.seh_setframe	rbp, 0
	sub	rsp, 64
	.seh_stackalloc	64
	.seh_endprologue
	mov	QWORD PTR 16[rbp], rcx
	mov	QWORD PTR 24[rbp], rdx
	mov	DWORD PTR -8[rbp], 48
	lea	rax, -32[rbp]
	lea	rcx, 24[rbp]
	lea	rdx, -8[rbp]
	mov	r8, rcx
	mov	rcx, rax
	call	_ZSt9make_pairIN5Token4TypeERPFi10CallParamsEESt4pairINSt25__strip_reference_wrapperINSt5decayIT_E4typeEE6__typeENS7_INS8_IT0_E4typeEE6__typeEEOS9_OSE_
	mov	rax, QWORD PTR 16[rbp]
	mov	edx, 0
	mov	rcx, rax
	call	_Z7fnvhashPKcb
	mov	DWORD PTR -4[rbp], eax
	lea	rax, -4[rbp]
	mov	rdx, rax
	mov	rax, QWORD PTR .refptr.multicharMapping[rip]
	mov	rcx, rax
	call	_ZNSt13unordered_mapIjSt4pairIiPFi10CallParamsEE6HasherSt8equal_toIjESaIS0_IKjS4_EEEixEOj
	mov	rcx, rax
	lea	rax, -32[rbp]
	mov	rdx, rax
	call	_ZNSt4pairIiPFi10CallParamsEEaSIN5Token4TypeES2_EERS3_OS_IT_T0_E
	nop
	add	rsp, 64
	pop	rbp
	ret
	.seh_endproc
	.globl	_Z5printv
	.def	_Z5printv;	.scl	2;	.type	32;	.endef
	.seh_proc	_Z5printv
_Z5printv:
.LFB8007:
	push	rbp
	.seh_pushreg	rbp
	mov	rbp, rsp
	.seh_setframe	rbp, 0
	.seh_endprologue
	nop
	pop	rbp
	ret
	.seh_endproc
	.section .rdata,"dr"
.LC4:
	.ascii "x: %llx\12\0"
	.text
	.globl	_Z7hookDllPFiP11DllMainDataE
	.def	_Z7hookDllPFiP11DllMainDataE;	.scl	2;	.type	32;	.endef
	.seh_proc	_Z7hookDllPFiP11DllMainDataE
_Z7hookDllPFiP11DllMainDataE:
.LFB8008:
	push	rbp
	.seh_pushreg	rbp
	mov	rbp, rsp
	.seh_setframe	rbp, 0
	sub	rsp, 80
	.seh_stackalloc	80
	.seh_endprologue
	mov	QWORD PTR 16[rbp], rcx
	lea	rax, _Z5printv[rip]
	mov	QWORD PTR -48[rbp], rax
	lea	rax, _Z15RegisterCommandPcPFi10CallParamsE[rip]
	mov	QWORD PTR -40[rbp], rax
	mov	QWORD PTR -32[rbp], 0
	mov	QWORD PTR -24[rbp], 0
	lea	rax, _Z14getProcAddressPcS_[rip]
	mov	QWORD PTR -16[rbp], rax
	mov	rdx, QWORD PTR 16[rbp]
	lea	rax, -48[rbp]
	mov	rcx, rax
	call	rdx
	mov	DWORD PTR -4[rbp], eax
	mov	eax, DWORD PTR -4[rbp]
	mov	edx, eax
	lea	rax, .LC4[rip]
	mov	rcx, rax
	call	_Z6printfPKcz
	nop
	add	rsp, 80
	pop	rbp
	ret
	.seh_endproc
	.section .rdata,"dr"
.LC5:
	.ascii "rb\0"
	.text
	.globl	_Z8doInject10CallParams
	.def	_Z8doInject10CallParams;	.scl	2;	.type	32;	.endef
	.seh_proc	_Z8doInject10CallParams
_Z8doInject10CallParams:
.LFB8009:
	push	rbp
	.seh_pushreg	rbp
	push	rbx
	.seh_pushreg	rbx
	sub	rsp, 152
	.seh_stackalloc	152
	lea	rbp, 144[rsp]
	.seh_setframe	rbp, 144
	.seh_endprologue
	mov	rbx, rcx
	mov	rax, QWORD PTR [rbx]
	mov	edx, 0
	mov	rcx, rax
	call	_ZNSt6vectorIP4NodeSaIS1_EEixEy
	mov	rax, QWORD PTR [rax]
	mov	QWORD PTR -8[rbp], rax
	mov	rax, QWORD PTR -8[rbp]
	movzx	eax, WORD PTR 8[rax]
	cmp	ax, 2
	je	.L184
	mov	eax, -1
	jmp	.L185
.L184:
	mov	rax, QWORD PTR -8[rbp]
	mov	rax, QWORD PTR [rax]
	mov	r8, QWORD PTR [rax]
	lea	rax, -96[rbp]
	mov	rdx, QWORD PTR -8[rbp]
	mov	rcx, rax
	call	r8
	mov	rax, QWORD PTR -88[rbp]
	mov	QWORD PTR -16[rbp], rax
	mov	QWORD PTR -24[rbp], 0
	mov	rax, QWORD PTR -16[rbp]
	lea	rdx, .LC5[rip]
	mov	rcx, rax
	call	fopen
	mov	QWORD PTR -32[rbp], rax
	mov	rax, QWORD PTR -32[rbp]
	mov	r8d, 2
	mov	edx, 0
	mov	rcx, rax
	call	fseek
	mov	rax, QWORD PTR -32[rbp]
	mov	rcx, rax
	call	ftell
	cdqe
	mov	QWORD PTR -40[rbp], rax
	mov	rax, QWORD PTR -32[rbp]
	mov	rcx, rax
	call	rewind
	mov	rax, QWORD PTR -40[rbp]
	mov	rcx, rax
	call	_Z15allocExecutabley
	mov	QWORD PTR -24[rbp], rax
	mov	rcx, QWORD PTR -32[rbp]
	mov	rdx, QWORD PTR -40[rbp]
	mov	rax, QWORD PTR -24[rbp]
	mov	r9, rcx
	mov	r8d, 1
	mov	rcx, rax
	call	fread
	mov	rax, QWORD PTR -24[rbp]
	mov	QWORD PTR -48[rbp], rax
	mov	rax, QWORD PTR -48[rbp]
	movzx	eax, WORD PTR [rax]
	cmp	ax, 19819
	je	.L186
	mov	eax, -1
	jmp	.L185
.L186:
	mov	rax, QWORD PTR -48[rbp]
	mov	eax, DWORD PTR 4[rax]
	and	eax, 15
	cmp	eax, 2
	je	.L187
	cmp	eax, 2
	jg	.L192
	test	eax, eax
	je	.L189
	cmp	eax, 1
	je	.L190
	jmp	.L192
.L189:
	mov	rax, QWORD PTR -48[rbp]
	movzx	eax, BYTE PTR 2[rax]
	movsx	rdx, al
	mov	rax, QWORD PTR -24[rbp]
	add	rax, rdx
	mov	rcx, rax
	call	_Z7hookDllPFiP11DllMainDataE
	jmp	.L191
.L190:
	mov	rax, QWORD PTR -48[rbp]
	mov	eax, DWORD PTR 8[rax]
	cdqe
	mov	rcx, rax
	call	_Z15allocExecutabley
	mov	QWORD PTR -72[rbp], rax
	mov	rax, QWORD PTR -48[rbp]
	mov	eax, DWORD PTR 4[rax]
	sar	eax, 27
	movsx	ecx, al
	mov	rax, QWORD PTR -48[rbp]
	mov	eax, DWORD PTR 8[rax]
	add	eax, 1
	mov	r9d, eax
	mov	rax, QWORD PTR -40[rbp]
	mov	edx, eax
	mov	rax, QWORD PTR -48[rbp]
	movzx	eax, BYTE PTR 2[rax]
	movsx	eax, al
	sub	edx, eax
	mov	rax, QWORD PTR -48[rbp]
	movzx	eax, BYTE PTR 2[rax]
	movsx	r8, al
	mov	rax, QWORD PTR -24[rbp]
	add	rax, r8
	mov	r8, QWORD PTR -72[rbp]
	mov	DWORD PTR 32[rsp], ecx
	mov	rcx, rax
	call	_Z15lz77_decompressPhjS_jc
	mov	DWORD PTR -76[rbp], eax
	mov	rax, QWORD PTR -72[rbp]
	mov	rcx, rax
	call	_Z7hookDllPFiP11DllMainDataE
	jmp	.L191
.L187:
	mov	rax, QWORD PTR -48[rbp]
	mov	eax, DWORD PTR 8[rax]
	cdqe
	mov	rcx, rax
	call	_Z15allocExecutabley
	mov	QWORD PTR -56[rbp], rax
	mov	rax, QWORD PTR -40[rbp]
	mov	edx, eax
	mov	rax, QWORD PTR -48[rbp]
	movzx	eax, BYTE PTR 2[rax]
	movsx	eax, al
	sub	edx, eax
	mov	r8d, edx
	mov	rax, QWORD PTR -48[rbp]
	movzx	eax, BYTE PTR 2[rax]
	movsx	rdx, al
	mov	rax, QWORD PTR -24[rbp]
	lea	rcx, [rdx+rax]
	mov	rax, QWORD PTR -48[rbp]
	mov	eax, DWORD PTR 8[rax]
	lea	edx, 1[rax]
	mov	rax, QWORD PTR -56[rbp]
	mov	r9d, r8d
	mov	r8, rcx
	mov	rcx, rax
	call	_ZL16sinfl_decompressPhiPKhi
	mov	DWORD PTR -60[rbp], eax
	mov	rax, QWORD PTR -56[rbp]
	mov	rcx, rax
	call	_Z7hookDllPFiP11DllMainDataE
	jmp	.L191
.L192:
	nop
.L191:
	mov	eax, 0
.L185:
	add	rsp, 152
	pop	rbx
	pop	rbp
	ret
	.seh_endproc
	.section	.text$_ZNSt13unordered_mapIjSt4pairIiPFi10CallParamsEE6HasherSt8equal_toIjESaIS0_IKjS4_EEEixEOj,"x"
	.linkonce discard
	.align 2
	.globl	_ZNSt13unordered_mapIjSt4pairIiPFi10CallParamsEE6HasherSt8equal_toIjESaIS0_IKjS4_EEEixEOj
	.def	_ZNSt13unordered_mapIjSt4pairIiPFi10CallParamsEE6HasherSt8equal_toIjESaIS0_IKjS4_EEEixEOj;	.scl	2;	.type	32;	.endef
	.seh_proc	_ZNSt13unordered_mapIjSt4pairIiPFi10CallParamsEE6HasherSt8equal_toIjESaIS0_IKjS4_EEEixEOj
_ZNSt13unordered_mapIjSt4pairIiPFi10CallParamsEE6HasherSt8equal_toIjESaIS0_IKjS4_EEEixEOj:
.LFB8025:
	push	rbp
	.seh_pushreg	rbp
	push	rbx
	.seh_pushreg	rbx
	sub	rsp, 40
	.seh_stackalloc	40
	lea	rbp, 32[rsp]
	.seh_setframe	rbp, 32
	.seh_endprologue
	mov	QWORD PTR 32[rbp], rcx
	mov	QWORD PTR 40[rbp], rdx
	mov	rbx, QWORD PTR 32[rbp]
	mov	rax, QWORD PTR 40[rbp]
	mov	rcx, rax
	call	_ZSt4moveIRjEONSt16remove_referenceIT_E4typeEOS2_
	mov	rdx, rax
	mov	rcx, rbx
	call	_ZNSt8__detail9_Map_baseIjSt4pairIKjS1_IiPFi10CallParamsEEESaIS7_ENS_10_Select1stESt8equal_toIjE6HasherNS_18_Mod_range_hashingENS_20_Default_ranged_hashENS_20_Prime_rehash_policyENS_17_Hashtable_traitsILb1ELb0ELb1EEELb1EEixEOj
	add	rsp, 40
	pop	rbx
	pop	rbp
	ret
	.seh_endproc
	.section	.text$_ZSt9make_pairIN5Token4TypeERPFi10CallParamsEESt4pairINSt25__strip_reference_wrapperINSt5decayIT_E4typeEE6__typeENS7_INS8_IT0_E4typeEE6__typeEEOS9_OSE_,"x"
	.linkonce discard
	.globl	_ZSt9make_pairIN5Token4TypeERPFi10CallParamsEESt4pairINSt25__strip_reference_wrapperINSt5decayIT_E4typeEE6__typeENS7_INS8_IT0_E4typeEE6__typeEEOS9_OSE_
	.def	_ZSt9make_pairIN5Token4TypeERPFi10CallParamsEESt4pairINSt25__strip_reference_wrapperINSt5decayIT_E4typeEE6__typeENS7_INS8_IT0_E4typeEE6__typeEEOS9_OSE_;	.scl	2;	.type	32;	.endef
	.seh_proc	_ZSt9make_pairIN5Token4TypeERPFi10CallParamsEESt4pairINSt25__strip_reference_wrapperINSt5decayIT_E4typeEE6__typeENS7_INS8_IT0_E4typeEE6__typeEEOS9_OSE_
_ZSt9make_pairIN5Token4TypeERPFi10CallParamsEESt4pairINSt25__strip_reference_wrapperINSt5decayIT_E4typeEE6__typeENS7_INS8_IT0_E4typeEE6__typeEEOS9_OSE_:
.LFB8026:
	push	rbp
	.seh_pushreg	rbp
	push	rbx
	.seh_pushreg	rbx
	sub	rsp, 40
	.seh_stackalloc	40
	lea	rbp, 32[rsp]
	.seh_setframe	rbp, 32
	.seh_endprologue
	mov	QWORD PTR 32[rbp], rcx
	mov	QWORD PTR 40[rbp], rdx
	mov	QWORD PTR 48[rbp], r8
	mov	rax, QWORD PTR 48[rbp]
	mov	rcx, rax
	call	_ZSt7forwardIRPFi10CallParamsEEOT_RNSt16remove_referenceIS4_E4typeE
	mov	rbx, rax
	mov	rax, QWORD PTR 40[rbp]
	mov	rcx, rax
	call	_ZSt7forwardIN5Token4TypeEEOT_RNSt16remove_referenceIS2_E4typeE
	mov	rdx, rax
	mov	rax, QWORD PTR 32[rbp]
	mov	r8, rbx
	mov	rcx, rax
	call	_ZNSt4pairIN5Token4TypeEPFi10CallParamsEEC1IS1_RS4_EEOT_OT0_
	mov	rax, QWORD PTR 32[rbp]
	add	rsp, 40
	pop	rbx
	pop	rbp
	ret
	.seh_endproc
	.section	.text$_ZNSt4pairIiPFi10CallParamsEEaSIN5Token4TypeES2_EERS3_OS_IT_T0_E,"x"
	.linkonce discard
	.align 2
	.globl	_ZNSt4pairIiPFi10CallParamsEEaSIN5Token4TypeES2_EERS3_OS_IT_T0_E
	.def	_ZNSt4pairIiPFi10CallParamsEEaSIN5Token4TypeES2_EERS3_OS_IT_T0_E;	.scl	2;	.type	32;	.endef
	.seh_proc	_ZNSt4pairIiPFi10CallParamsEEaSIN5Token4TypeES2_EERS3_OS_IT_T0_E
_ZNSt4pairIiPFi10CallParamsEEaSIN5Token4TypeES2_EERS3_OS_IT_T0_E:
.LFB8032:
	push	rbp
	.seh_pushreg	rbp
	mov	rbp, rsp
	.seh_setframe	rbp, 0
	sub	rsp, 32
	.seh_stackalloc	32
	.seh_endprologue
	mov	QWORD PTR 16[rbp], rcx
	mov	QWORD PTR 24[rbp], rdx
	mov	rax, QWORD PTR 24[rbp]
	mov	rcx, rax
	call	_ZSt7forwardIN5Token4TypeEEOT_RNSt16remove_referenceIS2_E4typeE
	mov	edx, DWORD PTR [rax]
	mov	rax, QWORD PTR 16[rbp]
	mov	DWORD PTR [rax], edx
	mov	rax, QWORD PTR 24[rbp]
	add	rax, 8
	mov	rcx, rax
	call	_ZSt7forwardIPFi10CallParamsEEOT_RNSt16remove_referenceIS3_E4typeE
	mov	rdx, QWORD PTR [rax]
	mov	rax, QWORD PTR 16[rbp]
	mov	QWORD PTR 8[rax], rdx
	mov	rax, QWORD PTR 16[rbp]
	add	rsp, 32
	pop	rbp
	ret
	.seh_endproc
	.section	.text$_ZNSt6vectorIP4NodeSaIS1_EEixEy,"x"
	.linkonce discard
	.align 2
	.globl	_ZNSt6vectorIP4NodeSaIS1_EEixEy
	.def	_ZNSt6vectorIP4NodeSaIS1_EEixEy;	.scl	2;	.type	32;	.endef
	.seh_proc	_ZNSt6vectorIP4NodeSaIS1_EEixEy
_ZNSt6vectorIP4NodeSaIS1_EEixEy:
.LFB8033:
	push	rbp
	.seh_pushreg	rbp
	mov	rbp, rsp
	.seh_setframe	rbp, 0
	.seh_endprologue
	mov	QWORD PTR 16[rbp], rcx
	mov	QWORD PTR 24[rbp], rdx
	mov	rax, QWORD PTR 16[rbp]
	mov	rax, QWORD PTR [rax]
	mov	rdx, QWORD PTR 24[rbp]
	sal	rdx, 3
	add	rax, rdx
	pop	rbp
	ret
	.seh_endproc
	.section	.text$_ZSt4moveIRjEONSt16remove_referenceIT_E4typeEOS2_,"x"
	.linkonce discard
	.globl	_ZSt4moveIRjEONSt16remove_referenceIT_E4typeEOS2_
	.def	_ZSt4moveIRjEONSt16remove_referenceIT_E4typeEOS2_;	.scl	2;	.type	32;	.endef
	.seh_proc	_ZSt4moveIRjEONSt16remove_referenceIT_E4typeEOS2_
_ZSt4moveIRjEONSt16remove_referenceIT_E4typeEOS2_:
.LFB8039:
	push	rbp
	.seh_pushreg	rbp
	mov	rbp, rsp
	.seh_setframe	rbp, 0
	.seh_endprologue
	mov	QWORD PTR 16[rbp], rcx
	mov	rax, QWORD PTR 16[rbp]
	pop	rbp
	ret
	.seh_endproc
	.section	.text$_ZNSt8__detail9_Map_baseIjSt4pairIKjS1_IiPFi10CallParamsEEESaIS7_ENS_10_Select1stESt8equal_toIjE6HasherNS_18_Mod_range_hashingENS_20_Default_ranged_hashENS_20_Prime_rehash_policyENS_17_Hashtable_traitsILb1ELb0ELb1EEELb1EEixEOj,"x"
	.linkonce discard
	.align 2
	.globl	_ZNSt8__detail9_Map_baseIjSt4pairIKjS1_IiPFi10CallParamsEEESaIS7_ENS_10_Select1stESt8equal_toIjE6HasherNS_18_Mod_range_hashingENS_20_Default_ranged_hashENS_20_Prime_rehash_policyENS_17_Hashtable_traitsILb1ELb0ELb1EEELb1EEixEOj
	.def	_ZNSt8__detail9_Map_baseIjSt4pairIKjS1_IiPFi10CallParamsEEESaIS7_ENS_10_Select1stESt8equal_toIjE6HasherNS_18_Mod_range_hashingENS_20_Default_ranged_hashENS_20_Prime_rehash_policyENS_17_Hashtable_traitsILb1ELb0ELb1EEELb1EEixEOj;	.scl	2;	.type	32;	.endef
	.seh_proc	_ZNSt8__detail9_Map_baseIjSt4pairIKjS1_IiPFi10CallParamsEEESaIS7_ENS_10_Select1stESt8equal_toIjE6HasherNS_18_Mod_range_hashingENS_20_Default_ranged_hashENS_20_Prime_rehash_policyENS_17_Hashtable_traitsILb1ELb0ELb1EEELb1EEixEOj
_ZNSt8__detail9_Map_baseIjSt4pairIKjS1_IiPFi10CallParamsEEESaIS7_ENS_10_Select1stESt8equal_toIjE6HasherNS_18_Mod_range_hashingENS_20_Default_ranged_hashENS_20_Prime_rehash_policyENS_17_Hashtable_traitsILb1ELb0ELb1EEELb1EEixEOj:
.LFB8040:
	push	rbp
	.seh_pushreg	rbp
	push	rbx
	.seh_pushreg	rbx
	sub	rsp, 136
	.seh_stackalloc	136
	lea	rbp, 128[rsp]
	.seh_setframe	rbp, 128
	.seh_endprologue
	mov	QWORD PTR 32[rbp], rcx
	mov	QWORD PTR 40[rbp], rdx
	mov	rax, QWORD PTR 32[rbp]
	mov	QWORD PTR -8[rbp], rax
	mov	rdx, QWORD PTR 40[rbp]
	mov	rax, QWORD PTR -8[rbp]
	mov	rcx, rax
.LEHB0:
	call	_ZNKSt8__detail15_Hash_code_baseIjSt4pairIKjS1_IiPFi10CallParamsEEENS_10_Select1stE6HasherNS_18_Mod_range_hashingENS_20_Default_ranged_hashELb1EE12_M_hash_codeERS2_
	mov	QWORD PTR -16[rbp], rax
	mov	rdx, QWORD PTR -16[rbp]
	mov	rax, QWORD PTR -8[rbp]
	mov	rcx, rax
	call	_ZNKSt10_HashtableIjSt4pairIKjS0_IiPFi10CallParamsEEESaIS6_ENSt8__detail10_Select1stESt8equal_toIjE6HasherNS8_18_Mod_range_hashingENS8_20_Default_ranged_hashENS8_20_Prime_rehash_policyENS8_17_Hashtable_traitsILb1ELb0ELb1EEEE15_M_bucket_indexEy
	mov	QWORD PTR -24[rbp], rax
	mov	r8, QWORD PTR -16[rbp]
	mov	rcx, QWORD PTR 40[rbp]
	mov	rdx, QWORD PTR -24[rbp]
	mov	rax, QWORD PTR -8[rbp]
	mov	r9, r8
	mov	r8, rcx
	mov	rcx, rax
	call	_ZNKSt10_HashtableIjSt4pairIKjS0_IiPFi10CallParamsEEESaIS6_ENSt8__detail10_Select1stESt8equal_toIjE6HasherNS8_18_Mod_range_hashingENS8_20_Default_ranged_hashENS8_20_Prime_rehash_policyENS8_17_Hashtable_traitsILb1ELb0ELb1EEEE12_M_find_nodeEyRS1_y
	mov	QWORD PTR -32[rbp], rax
	cmp	QWORD PTR -32[rbp], 0
	je	.L204
	mov	rax, QWORD PTR -32[rbp]
	add	rax, 8
	mov	rcx, rax
	call	_ZNSt8__detail21_Hash_node_value_baseISt4pairIKjS1_IiPFi10CallParamsEEEE4_M_vEv
	lea	rbx, 8[rax]
	jmp	.L206
.L204:
	mov	rbx, QWORD PTR -8[rbp]
	mov	rax, QWORD PTR 40[rbp]
	mov	rcx, rax
	call	_ZSt4moveIRjEONSt16remove_referenceIT_E4typeEOS2_
	mov	rdx, rax
	lea	rax, -48[rbp]
	mov	rcx, rax
	call	_ZSt16forward_as_tupleIJjEESt5tupleIJDpOT_EES3_
	lea	rcx, -48[rbp]
	lea	rax, -64[rbp]
	lea	rdx, -33[rbp]
	mov	QWORD PTR 32[rsp], rdx
	mov	r9, rcx
	lea	r8, _ZSt19piecewise_construct[rip]
	mov	rdx, rbx
	mov	rcx, rax
	call	_ZNSt10_HashtableIjSt4pairIKjS0_IiPFi10CallParamsEEESaIS6_ENSt8__detail10_Select1stESt8equal_toIjE6HasherNS8_18_Mod_range_hashingENS8_20_Default_ranged_hashENS8_20_Prime_rehash_policyENS8_17_Hashtable_traitsILb1ELb0ELb1EEEE12_Scoped_nodeC1IJRKSt21piecewise_construct_tSt5tupleIJOjEESO_IJEEEEEPNS8_16_Hashtable_allocISaINS8_10_Hash_nodeIS6_Lb1EEEEEEDpOT_
.LEHE0:
	mov	r8, QWORD PTR -56[rbp]
	mov	rcx, QWORD PTR -16[rbp]
	mov	rdx, QWORD PTR -24[rbp]
	mov	rax, QWORD PTR -8[rbp]
	mov	QWORD PTR 32[rsp], 1
	mov	r9, r8
	mov	r8, rcx
	mov	rcx, rax
.LEHB1:
	call	_ZNSt10_HashtableIjSt4pairIKjS0_IiPFi10CallParamsEEESaIS6_ENSt8__detail10_Select1stESt8equal_toIjE6HasherNS8_18_Mod_range_hashingENS8_20_Default_ranged_hashENS8_20_Prime_rehash_policyENS8_17_Hashtable_traitsILb1ELb0ELb1EEEE21_M_insert_unique_nodeEyyPNS8_10_Hash_nodeIS6_Lb1EEEy
.LEHE1:
	mov	QWORD PTR -72[rbp], rax
	mov	QWORD PTR -56[rbp], 0
	lea	rax, -72[rbp]
	mov	rcx, rax
	call	_ZNKSt8__detail14_Node_iteratorISt4pairIKjS1_IiPFi10CallParamsEEELb0ELb1EEptEv
	lea	rbx, 8[rax]
	lea	rax, -64[rbp]
	mov	rcx, rax
	call	_ZNSt10_HashtableIjSt4pairIKjS0_IiPFi10CallParamsEEESaIS6_ENSt8__detail10_Select1stESt8equal_toIjE6HasherNS8_18_Mod_range_hashingENS8_20_Default_ranged_hashENS8_20_Prime_rehash_policyENS8_17_Hashtable_traitsILb1ELb0ELb1EEEE12_Scoped_nodeD1Ev
.L206:
	mov	rax, rbx
	jmp	.L209
.L208:
	mov	rbx, rax
	lea	rax, -64[rbp]
	mov	rcx, rax
	call	_ZNSt10_HashtableIjSt4pairIKjS0_IiPFi10CallParamsEEESaIS6_ENSt8__detail10_Select1stESt8equal_toIjE6HasherNS8_18_Mod_range_hashingENS8_20_Default_ranged_hashENS8_20_Prime_rehash_policyENS8_17_Hashtable_traitsILb1ELb0ELb1EEEE12_Scoped_nodeD1Ev
	mov	rax, rbx
	mov	rcx, rax
.LEHB2:
	call	_Unwind_Resume
.LEHE2:
.L209:
	add	rsp, 136
	pop	rbx
	pop	rbp
	ret
	.def	__gxx_personality_seh0;	.scl	2;	.type	32;	.endef
	.seh_handler	__gxx_personality_seh0, @unwind, @except
	.seh_handlerdata
.LLSDA8040:
	.byte	0xff
	.byte	0xff
	.byte	0x1
	.uleb128 .LLSDACSE8040-.LLSDACSB8040
.LLSDACSB8040:
	.uleb128 .LEHB0-.LFB8040
	.uleb128 .LEHE0-.LEHB0
	.uleb128 0
	.uleb128 0
	.uleb128 .LEHB1-.LFB8040
	.uleb128 .LEHE1-.LEHB1
	.uleb128 .L208-.LFB8040
	.uleb128 0
	.uleb128 .LEHB2-.LFB8040
	.uleb128 .LEHE2-.LEHB2
	.uleb128 0
	.uleb128 0
.LLSDACSE8040:
	.section	.text$_ZNSt8__detail9_Map_baseIjSt4pairIKjS1_IiPFi10CallParamsEEESaIS7_ENS_10_Select1stESt8equal_toIjE6HasherNS_18_Mod_range_hashingENS_20_Default_ranged_hashENS_20_Prime_rehash_policyENS_17_Hashtable_traitsILb1ELb0ELb1EEELb1EEixEOj,"x"
	.linkonce discard
	.seh_endproc
	.section	.text$_ZSt7forwardIN5Token4TypeEEOT_RNSt16remove_referenceIS2_E4typeE,"x"
	.linkonce discard
	.globl	_ZSt7forwardIN5Token4TypeEEOT_RNSt16remove_referenceIS2_E4typeE
	.def	_ZSt7forwardIN5Token4TypeEEOT_RNSt16remove_referenceIS2_E4typeE;	.scl	2;	.type	32;	.endef
	.seh_proc	_ZSt7forwardIN5Token4TypeEEOT_RNSt16remove_referenceIS2_E4typeE
_ZSt7forwardIN5Token4TypeEEOT_RNSt16remove_referenceIS2_E4typeE:
.LFB8047:
	push	rbp
	.seh_pushreg	rbp
	mov	rbp, rsp
	.seh_setframe	rbp, 0
	.seh_endprologue
	mov	QWORD PTR 16[rbp], rcx
	mov	rax, QWORD PTR 16[rbp]
	pop	rbp
	ret
	.seh_endproc
	.section	.text$_ZSt7forwardIRPFi10CallParamsEEOT_RNSt16remove_referenceIS4_E4typeE,"x"
	.linkonce discard
	.globl	_ZSt7forwardIRPFi10CallParamsEEOT_RNSt16remove_referenceIS4_E4typeE
	.def	_ZSt7forwardIRPFi10CallParamsEEOT_RNSt16remove_referenceIS4_E4typeE;	.scl	2;	.type	32;	.endef
	.seh_proc	_ZSt7forwardIRPFi10CallParamsEEOT_RNSt16remove_referenceIS4_E4typeE
_ZSt7forwardIRPFi10CallParamsEEOT_RNSt16remove_referenceIS4_E4typeE:
.LFB8048:
	push	rbp
	.seh_pushreg	rbp
	mov	rbp, rsp
	.seh_setframe	rbp, 0
	.seh_endprologue
	mov	QWORD PTR 16[rbp], rcx
	mov	rax, QWORD PTR 16[rbp]
	pop	rbp
	ret
	.seh_endproc
	.section	.text$_ZNSt4pairIN5Token4TypeEPFi10CallParamsEEC1IS1_RS4_EEOT_OT0_,"x"
	.linkonce discard
	.align 2
	.globl	_ZNSt4pairIN5Token4TypeEPFi10CallParamsEEC1IS1_RS4_EEOT_OT0_
	.def	_ZNSt4pairIN5Token4TypeEPFi10CallParamsEEC1IS1_RS4_EEOT_OT0_;	.scl	2;	.type	32;	.endef
	.seh_proc	_ZNSt4pairIN5Token4TypeEPFi10CallParamsEEC1IS1_RS4_EEOT_OT0_
_ZNSt4pairIN5Token4TypeEPFi10CallParamsEEC1IS1_RS4_EEOT_OT0_:
.LFB8051:
	push	rbp
	.seh_pushreg	rbp
	mov	rbp, rsp
	.seh_setframe	rbp, 0
	sub	rsp, 32
	.seh_stackalloc	32
	.seh_endprologue
	mov	QWORD PTR 16[rbp], rcx
	mov	QWORD PTR 24[rbp], rdx
	mov	QWORD PTR 32[rbp], r8
	mov	rax, QWORD PTR 24[rbp]
	mov	rcx, rax
	call	_ZSt7forwardIN5Token4TypeEEOT_RNSt16remove_referenceIS2_E4typeE
	mov	edx, DWORD PTR [rax]
	mov	rax, QWORD PTR 16[rbp]
	mov	DWORD PTR [rax], edx
	mov	rax, QWORD PTR 32[rbp]
	mov	rcx, rax
	call	_ZSt7forwardIRPFi10CallParamsEEOT_RNSt16remove_referenceIS4_E4typeE
	mov	rdx, QWORD PTR [rax]
	mov	rax, QWORD PTR 16[rbp]
	mov	QWORD PTR 8[rax], rdx
	nop
	add	rsp, 32
	pop	rbp
	ret
	.seh_endproc
	.section	.text$_ZSt7forwardIPFi10CallParamsEEOT_RNSt16remove_referenceIS3_E4typeE,"x"
	.linkonce discard
	.globl	_ZSt7forwardIPFi10CallParamsEEOT_RNSt16remove_referenceIS3_E4typeE
	.def	_ZSt7forwardIPFi10CallParamsEEOT_RNSt16remove_referenceIS3_E4typeE;	.scl	2;	.type	32;	.endef
	.seh_proc	_ZSt7forwardIPFi10CallParamsEEOT_RNSt16remove_referenceIS3_E4typeE
_ZSt7forwardIPFi10CallParamsEEOT_RNSt16remove_referenceIS3_E4typeE:
.LFB8052:
	push	rbp
	.seh_pushreg	rbp
	mov	rbp, rsp
	.seh_setframe	rbp, 0
	.seh_endprologue
	mov	QWORD PTR 16[rbp], rcx
	mov	rax, QWORD PTR 16[rbp]
	pop	rbp
	ret
	.seh_endproc
	.section	.text$_ZNKSt8__detail15_Hash_code_baseIjSt4pairIKjS1_IiPFi10CallParamsEEENS_10_Select1stE6HasherNS_18_Mod_range_hashingENS_20_Default_ranged_hashELb1EE12_M_hash_codeERS2_,"x"
	.linkonce discard
	.align 2
	.globl	_ZNKSt8__detail15_Hash_code_baseIjSt4pairIKjS1_IiPFi10CallParamsEEENS_10_Select1stE6HasherNS_18_Mod_range_hashingENS_20_Default_ranged_hashELb1EE12_M_hash_codeERS2_
	.def	_ZNKSt8__detail15_Hash_code_baseIjSt4pairIKjS1_IiPFi10CallParamsEEENS_10_Select1stE6HasherNS_18_Mod_range_hashingENS_20_Default_ranged_hashELb1EE12_M_hash_codeERS2_;	.scl	2;	.type	32;	.endef
	.seh_proc	_ZNKSt8__detail15_Hash_code_baseIjSt4pairIKjS1_IiPFi10CallParamsEEENS_10_Select1stE6HasherNS_18_Mod_range_hashingENS_20_Default_ranged_hashELb1EE12_M_hash_codeERS2_
_ZNKSt8__detail15_Hash_code_baseIjSt4pairIKjS1_IiPFi10CallParamsEEENS_10_Select1stE6HasherNS_18_Mod_range_hashingENS_20_Default_ranged_hashELb1EE12_M_hash_codeERS2_:
.LFB8053:
	push	rbp
	.seh_pushreg	rbp
	mov	rbp, rsp
	.seh_setframe	rbp, 0
	sub	rsp, 48
	.seh_stackalloc	48
	.seh_endprologue
	mov	QWORD PTR 16[rbp], rcx
	mov	QWORD PTR 24[rbp], rdx
	mov	rax, QWORD PTR 16[rbp]
	mov	rcx, rax
	call	_ZNKSt8__detail15_Hash_code_baseIjSt4pairIKjS1_IiPFi10CallParamsEEENS_10_Select1stE6HasherNS_18_Mod_range_hashingENS_20_Default_ranged_hashELb1EE7_M_hashEv
	mov	rcx, rax
	mov	rax, QWORD PTR 24[rbp]
	mov	eax, DWORD PTR [rax]
	mov	eax, eax
	mov	QWORD PTR -8[rbp], rax
	lea	rax, -8[rbp]
	mov	rdx, rax
	call	_ZNK6HasherclERKy
	add	rsp, 48
	pop	rbp
	ret
	.seh_endproc
	.section	.text$_ZNKSt10_HashtableIjSt4pairIKjS0_IiPFi10CallParamsEEESaIS6_ENSt8__detail10_Select1stESt8equal_toIjE6HasherNS8_18_Mod_range_hashingENS8_20_Default_ranged_hashENS8_20_Prime_rehash_policyENS8_17_Hashtable_traitsILb1ELb0ELb1EEEE15_M_bucket_indexEy,"x"
	.linkonce discard
	.align 2
	.globl	_ZNKSt10_HashtableIjSt4pairIKjS0_IiPFi10CallParamsEEESaIS6_ENSt8__detail10_Select1stESt8equal_toIjE6HasherNS8_18_Mod_range_hashingENS8_20_Default_ranged_hashENS8_20_Prime_rehash_policyENS8_17_Hashtable_traitsILb1ELb0ELb1EEEE15_M_bucket_indexEy
	.def	_ZNKSt10_HashtableIjSt4pairIKjS0_IiPFi10CallParamsEEESaIS6_ENSt8__detail10_Select1stESt8equal_toIjE6HasherNS8_18_Mod_range_hashingENS8_20_Default_ranged_hashENS8_20_Prime_rehash_policyENS8_17_Hashtable_traitsILb1ELb0ELb1EEEE15_M_bucket_indexEy;	.scl	2;	.type	32;	.endef
	.seh_proc	_ZNKSt10_HashtableIjSt4pairIKjS0_IiPFi10CallParamsEEESaIS6_ENSt8__detail10_Select1stESt8equal_toIjE6HasherNS8_18_Mod_range_hashingENS8_20_Default_ranged_hashENS8_20_Prime_rehash_policyENS8_17_Hashtable_traitsILb1ELb0ELb1EEEE15_M_bucket_indexEy
_ZNKSt10_HashtableIjSt4pairIKjS0_IiPFi10CallParamsEEESaIS6_ENSt8__detail10_Select1stESt8equal_toIjE6HasherNS8_18_Mod_range_hashingENS8_20_Default_ranged_hashENS8_20_Prime_rehash_policyENS8_17_Hashtable_traitsILb1ELb0ELb1EEEE15_M_bucket_indexEy:
.LFB8054:
	push	rbp
	.seh_pushreg	rbp
	mov	rbp, rsp
	.seh_setframe	rbp, 0
	sub	rsp, 32
	.seh_stackalloc	32
	.seh_endprologue
	mov	QWORD PTR 16[rbp], rcx
	mov	QWORD PTR 24[rbp], rdx
	mov	rax, QWORD PTR 16[rbp]
	mov	rcx, QWORD PTR 8[rax]
	mov	rdx, QWORD PTR 24[rbp]
	mov	rax, QWORD PTR 16[rbp]
	mov	r8, rcx
	mov	rcx, rax
	call	_ZNKSt8__detail15_Hash_code_baseIjSt4pairIKjS1_IiPFi10CallParamsEEENS_10_Select1stE6HasherNS_18_Mod_range_hashingENS_20_Default_ranged_hashELb1EE15_M_bucket_indexEyy
	add	rsp, 32
	pop	rbp
	ret
	.seh_endproc
	.section	.text$_ZNKSt10_HashtableIjSt4pairIKjS0_IiPFi10CallParamsEEESaIS6_ENSt8__detail10_Select1stESt8equal_toIjE6HasherNS8_18_Mod_range_hashingENS8_20_Default_ranged_hashENS8_20_Prime_rehash_policyENS8_17_Hashtable_traitsILb1ELb0ELb1EEEE12_M_find_nodeEyRS1_y,"x"
	.linkonce discard
	.align 2
	.globl	_ZNKSt10_HashtableIjSt4pairIKjS0_IiPFi10CallParamsEEESaIS6_ENSt8__detail10_Select1stESt8equal_toIjE6HasherNS8_18_Mod_range_hashingENS8_20_Default_ranged_hashENS8_20_Prime_rehash_policyENS8_17_Hashtable_traitsILb1ELb0ELb1EEEE12_M_find_nodeEyRS1_y
	.def	_ZNKSt10_HashtableIjSt4pairIKjS0_IiPFi10CallParamsEEESaIS6_ENSt8__detail10_Select1stESt8equal_toIjE6HasherNS8_18_Mod_range_hashingENS8_20_Default_ranged_hashENS8_20_Prime_rehash_policyENS8_17_Hashtable_traitsILb1ELb0ELb1EEEE12_M_find_nodeEyRS1_y;	.scl	2;	.type	32;	.endef
	.seh_proc	_ZNKSt10_HashtableIjSt4pairIKjS0_IiPFi10CallParamsEEESaIS6_ENSt8__detail10_Select1stESt8equal_toIjE6HasherNS8_18_Mod_range_hashingENS8_20_Default_ranged_hashENS8_20_Prime_rehash_policyENS8_17_Hashtable_traitsILb1ELb0ELb1EEEE12_M_find_nodeEyRS1_y
_ZNKSt10_HashtableIjSt4pairIKjS0_IiPFi10CallParamsEEESaIS6_ENSt8__detail10_Select1stESt8equal_toIjE6HasherNS8_18_Mod_range_hashingENS8_20_Default_ranged_hashENS8_20_Prime_rehash_policyENS8_17_Hashtable_traitsILb1ELb0ELb1EEEE12_M_find_nodeEyRS1_y:
.LFB8055:
	push	rbp
	.seh_pushreg	rbp
	mov	rbp, rsp
	.seh_setframe	rbp, 0
	sub	rsp, 48
	.seh_stackalloc	48
	.seh_endprologue
	mov	QWORD PTR 16[rbp], rcx
	mov	QWORD PTR 24[rbp], rdx
	mov	QWORD PTR 32[rbp], r8
	mov	QWORD PTR 40[rbp], r9
	mov	r8, QWORD PTR 40[rbp]
	mov	rcx, QWORD PTR 32[rbp]
	mov	rdx, QWORD PTR 24[rbp]
	mov	rax, QWORD PTR 16[rbp]
	mov	r9, r8
	mov	r8, rcx
	mov	rcx, rax
	call	_ZNKSt10_HashtableIjSt4pairIKjS0_IiPFi10CallParamsEEESaIS6_ENSt8__detail10_Select1stESt8equal_toIjE6HasherNS8_18_Mod_range_hashingENS8_20_Default_ranged_hashENS8_20_Prime_rehash_policyENS8_17_Hashtable_traitsILb1ELb0ELb1EEEE19_M_find_before_nodeEyRS1_y
	mov	QWORD PTR -8[rbp], rax
	cmp	QWORD PTR -8[rbp], 0
	je	.L222
	mov	rax, QWORD PTR -8[rbp]
	mov	rax, QWORD PTR [rax]
	jmp	.L223
.L222:
	mov	eax, 0
.L223:
	add	rsp, 48
	pop	rbp
	ret
	.seh_endproc
	.section	.text$_ZNSt8__detail21_Hash_node_value_baseISt4pairIKjS1_IiPFi10CallParamsEEEE4_M_vEv,"x"
	.linkonce discard
	.align 2
	.globl	_ZNSt8__detail21_Hash_node_value_baseISt4pairIKjS1_IiPFi10CallParamsEEEE4_M_vEv
	.def	_ZNSt8__detail21_Hash_node_value_baseISt4pairIKjS1_IiPFi10CallParamsEEEE4_M_vEv;	.scl	2;	.type	32;	.endef
	.seh_proc	_ZNSt8__detail21_Hash_node_value_baseISt4pairIKjS1_IiPFi10CallParamsEEEE4_M_vEv
_ZNSt8__detail21_Hash_node_value_baseISt4pairIKjS1_IiPFi10CallParamsEEEE4_M_vEv:
.LFB8056:
	push	rbp
	.seh_pushreg	rbp
	mov	rbp, rsp
	.seh_setframe	rbp, 0
	sub	rsp, 32
	.seh_stackalloc	32
	.seh_endprologue
	mov	QWORD PTR 16[rbp], rcx
	mov	rax, QWORD PTR 16[rbp]
	mov	rcx, rax
	call	_ZNSt8__detail21_Hash_node_value_baseISt4pairIKjS1_IiPFi10CallParamsEEEE9_M_valptrEv
	add	rsp, 32
	pop	rbp
	ret
	.seh_endproc
	.section	.text$_ZSt16forward_as_tupleIJjEESt5tupleIJDpOT_EES3_,"x"
	.linkonce discard
	.globl	_ZSt16forward_as_tupleIJjEESt5tupleIJDpOT_EES3_
	.def	_ZSt16forward_as_tupleIJjEESt5tupleIJDpOT_EES3_;	.scl	2;	.type	32;	.endef
	.seh_proc	_ZSt16forward_as_tupleIJjEESt5tupleIJDpOT_EES3_
_ZSt16forward_as_tupleIJjEESt5tupleIJDpOT_EES3_:
.LFB8057:
	push	rbp
	.seh_pushreg	rbp
	mov	rbp, rsp
	.seh_setframe	rbp, 0
	sub	rsp, 32
	.seh_stackalloc	32
	.seh_endprologue
	mov	QWORD PTR 16[rbp], rcx
	mov	QWORD PTR 24[rbp], rdx
	mov	rax, QWORD PTR 24[rbp]
	mov	rcx, rax
	call	_ZSt7forwardIjEOT_RNSt16remove_referenceIS0_E4typeE
	mov	rdx, rax
	mov	rax, QWORD PTR 16[rbp]
	mov	rcx, rax
	call	_ZNSt5tupleIJOjEEC1IJjELb1ELb1EEEDpOT_
	mov	rax, QWORD PTR 16[rbp]
	add	rsp, 32
	pop	rbp
	ret
	.seh_endproc
	.section	.text$_ZNSt10_HashtableIjSt4pairIKjS0_IiPFi10CallParamsEEESaIS6_ENSt8__detail10_Select1stESt8equal_toIjE6HasherNS8_18_Mod_range_hashingENS8_20_Default_ranged_hashENS8_20_Prime_rehash_policyENS8_17_Hashtable_traitsILb1ELb0ELb1EEEE12_Scoped_nodeC1IJRKSt21piecewise_construct_tSt5tupleIJOjEESO_IJEEEEEPNS8_16_Hashtable_allocISaINS8_10_Hash_nodeIS6_Lb1EEEEEEDpOT_,"x"
	.linkonce discard
	.align 2
	.globl	_ZNSt10_HashtableIjSt4pairIKjS0_IiPFi10CallParamsEEESaIS6_ENSt8__detail10_Select1stESt8equal_toIjE6HasherNS8_18_Mod_range_hashingENS8_20_Default_ranged_hashENS8_20_Prime_rehash_policyENS8_17_Hashtable_traitsILb1ELb0ELb1EEEE12_Scoped_nodeC1IJRKSt21piecewise_construct_tSt5tupleIJOjEESO_IJEEEEEPNS8_16_Hashtable_allocISaINS8_10_Hash_nodeIS6_Lb1EEEEEEDpOT_
	.def	_ZNSt10_HashtableIjSt4pairIKjS0_IiPFi10CallParamsEEESaIS6_ENSt8__detail10_Select1stESt8equal_toIjE6HasherNS8_18_Mod_range_hashingENS8_20_Default_ranged_hashENS8_20_Prime_rehash_policyENS8_17_Hashtable_traitsILb1ELb0ELb1EEEE12_Scoped_nodeC1IJRKSt21piecewise_construct_tSt5tupleIJOjEESO_IJEEEEEPNS8_16_Hashtable_allocISaINS8_10_Hash_nodeIS6_Lb1EEEEEEDpOT_;	.scl	2;	.type	32;	.endef
	.seh_proc	_ZNSt10_HashtableIjSt4pairIKjS0_IiPFi10CallParamsEEESaIS6_ENSt8__detail10_Select1stESt8equal_toIjE6HasherNS8_18_Mod_range_hashingENS8_20_Default_ranged_hashENS8_20_Prime_rehash_policyENS8_17_Hashtable_traitsILb1ELb0ELb1EEEE12_Scoped_nodeC1IJRKSt21piecewise_construct_tSt5tupleIJOjEESO_IJEEEEEPNS8_16_Hashtable_allocISaINS8_10_Hash_nodeIS6_Lb1EEEEEEDpOT_
_ZNSt10_HashtableIjSt4pairIKjS0_IiPFi10CallParamsEEESaIS6_ENSt8__detail10_Select1stESt8equal_toIjE6HasherNS8_18_Mod_range_hashingENS8_20_Default_ranged_hashENS8_20_Prime_rehash_policyENS8_17_Hashtable_traitsILb1ELb0ELb1EEEE12_Scoped_nodeC1IJRKSt21piecewise_construct_tSt5tupleIJOjEESO_IJEEEEEPNS8_16_Hashtable_allocISaINS8_10_Hash_nodeIS6_Lb1EEEEEEDpOT_:
.LFB8067:
	push	rbp
	.seh_pushreg	rbp
	push	rdi
	.seh_pushreg	rdi
	push	rsi
	.seh_pushreg	rsi
	push	rbx
	.seh_pushreg	rbx
	sub	rsp, 40
	.seh_stackalloc	40
	lea	rbp, 32[rsp]
	.seh_setframe	rbp, 32
	.seh_endprologue
	mov	QWORD PTR 48[rbp], rcx
	mov	QWORD PTR 56[rbp], rdx
	mov	QWORD PTR 64[rbp], r8
	mov	QWORD PTR 72[rbp], r9
	mov	rax, QWORD PTR 48[rbp]
	mov	rdx, QWORD PTR 56[rbp]
	mov	QWORD PTR [rax], rdx
	mov	rbx, QWORD PTR 56[rbp]
	mov	rax, QWORD PTR 80[rbp]
	mov	rcx, rax
	call	_ZSt7forwardISt5tupleIJEEEOT_RNSt16remove_referenceIS2_E4typeE
	mov	rdi, rax
	mov	rax, QWORD PTR 72[rbp]
	mov	rcx, rax
	call	_ZSt7forwardISt5tupleIJOjEEEOT_RNSt16remove_referenceIS3_E4typeE
	mov	rsi, rax
	mov	rax, QWORD PTR 64[rbp]
	mov	rcx, rax
	call	_ZSt7forwardIRKSt21piecewise_construct_tEOT_RNSt16remove_referenceIS3_E4typeE
	mov	r9, rdi
	mov	r8, rsi
	mov	rdx, rax
	mov	rcx, rbx
	call	_ZNSt8__detail16_Hashtable_allocISaINS_10_Hash_nodeISt4pairIKjS2_IiPFi10CallParamsEEELb1EEEEE16_M_allocate_nodeIJRKSt21piecewise_construct_tSt5tupleIJOjEESG_IJEEEEEPS9_DpOT_
	mov	rdx, QWORD PTR 48[rbp]
	mov	QWORD PTR 8[rdx], rax
	nop
	add	rsp, 40
	pop	rbx
	pop	rsi
	pop	rdi
	pop	rbp
	ret
	.seh_endproc
	.section	.text$_ZNSt10_HashtableIjSt4pairIKjS0_IiPFi10CallParamsEEESaIS6_ENSt8__detail10_Select1stESt8equal_toIjE6HasherNS8_18_Mod_range_hashingENS8_20_Default_ranged_hashENS8_20_Prime_rehash_policyENS8_17_Hashtable_traitsILb1ELb0ELb1EEEE12_Scoped_nodeD1Ev,"x"
	.linkonce discard
	.align 2
	.globl	_ZNSt10_HashtableIjSt4pairIKjS0_IiPFi10CallParamsEEESaIS6_ENSt8__detail10_Select1stESt8equal_toIjE6HasherNS8_18_Mod_range_hashingENS8_20_Default_ranged_hashENS8_20_Prime_rehash_policyENS8_17_Hashtable_traitsILb1ELb0ELb1EEEE12_Scoped_nodeD1Ev
	.def	_ZNSt10_HashtableIjSt4pairIKjS0_IiPFi10CallParamsEEESaIS6_ENSt8__detail10_Select1stESt8equal_toIjE6HasherNS8_18_Mod_range_hashingENS8_20_Default_ranged_hashENS8_20_Prime_rehash_policyENS8_17_Hashtable_traitsILb1ELb0ELb1EEEE12_Scoped_nodeD1Ev;	.scl	2;	.type	32;	.endef
	.seh_proc	_ZNSt10_HashtableIjSt4pairIKjS0_IiPFi10CallParamsEEESaIS6_ENSt8__detail10_Select1stESt8equal_toIjE6HasherNS8_18_Mod_range_hashingENS8_20_Default_ranged_hashENS8_20_Prime_rehash_policyENS8_17_Hashtable_traitsILb1ELb0ELb1EEEE12_Scoped_nodeD1Ev
_ZNSt10_HashtableIjSt4pairIKjS0_IiPFi10CallParamsEEESaIS6_ENSt8__detail10_Select1stESt8equal_toIjE6HasherNS8_18_Mod_range_hashingENS8_20_Default_ranged_hashENS8_20_Prime_rehash_policyENS8_17_Hashtable_traitsILb1ELb0ELb1EEEE12_Scoped_nodeD1Ev:
.LFB8070:
	push	rbp
	.seh_pushreg	rbp
	mov	rbp, rsp
	.seh_setframe	rbp, 0
	sub	rsp, 32
	.seh_stackalloc	32
	.seh_endprologue
	mov	QWORD PTR 16[rbp], rcx
	mov	rax, QWORD PTR 16[rbp]
	mov	rax, QWORD PTR 8[rax]
	test	rax, rax
	je	.L231
	mov	rax, QWORD PTR 16[rbp]
	mov	rax, QWORD PTR [rax]
	mov	rdx, QWORD PTR 16[rbp]
	mov	rdx, QWORD PTR 8[rdx]
	mov	rcx, rax
	call	_ZNSt8__detail16_Hashtable_allocISaINS_10_Hash_nodeISt4pairIKjS2_IiPFi10CallParamsEEELb1EEEEE18_M_deallocate_nodeEPS9_
.L231:
	nop
	add	rsp, 32
	pop	rbp
	ret
	.seh_handler	__gxx_personality_seh0, @unwind, @except
	.seh_handlerdata
.LLSDA8070:
	.byte	0xff
	.byte	0xff
	.byte	0x1
	.uleb128 .LLSDACSE8070-.LLSDACSB8070
.LLSDACSB8070:
.LLSDACSE8070:
	.section	.text$_ZNSt10_HashtableIjSt4pairIKjS0_IiPFi10CallParamsEEESaIS6_ENSt8__detail10_Select1stESt8equal_toIjE6HasherNS8_18_Mod_range_hashingENS8_20_Default_ranged_hashENS8_20_Prime_rehash_policyENS8_17_Hashtable_traitsILb1ELb0ELb1EEEE12_Scoped_nodeD1Ev,"x"
	.linkonce discard
	.seh_endproc
	.section	.text$_ZNSt10_HashtableIjSt4pairIKjS0_IiPFi10CallParamsEEESaIS6_ENSt8__detail10_Select1stESt8equal_toIjE6HasherNS8_18_Mod_range_hashingENS8_20_Default_ranged_hashENS8_20_Prime_rehash_policyENS8_17_Hashtable_traitsILb1ELb0ELb1EEEE21_M_insert_unique_nodeEyyPNS8_10_Hash_nodeIS6_Lb1EEEy,"x"
	.linkonce discard
	.align 2
	.globl	_ZNSt10_HashtableIjSt4pairIKjS0_IiPFi10CallParamsEEESaIS6_ENSt8__detail10_Select1stESt8equal_toIjE6HasherNS8_18_Mod_range_hashingENS8_20_Default_ranged_hashENS8_20_Prime_rehash_policyENS8_17_Hashtable_traitsILb1ELb0ELb1EEEE21_M_insert_unique_nodeEyyPNS8_10_Hash_nodeIS6_Lb1EEEy
	.def	_ZNSt10_HashtableIjSt4pairIKjS0_IiPFi10CallParamsEEESaIS6_ENSt8__detail10_Select1stESt8equal_toIjE6HasherNS8_18_Mod_range_hashingENS8_20_Default_ranged_hashENS8_20_Prime_rehash_policyENS8_17_Hashtable_traitsILb1ELb0ELb1EEEE21_M_insert_unique_nodeEyyPNS8_10_Hash_nodeIS6_Lb1EEEy;	.scl	2;	.type	32;	.endef
	.seh_proc	_ZNSt10_HashtableIjSt4pairIKjS0_IiPFi10CallParamsEEESaIS6_ENSt8__detail10_Select1stESt8equal_toIjE6HasherNS8_18_Mod_range_hashingENS8_20_Default_ranged_hashENS8_20_Prime_rehash_policyENS8_17_Hashtable_traitsILb1ELb0ELb1EEEE21_M_insert_unique_nodeEyyPNS8_10_Hash_nodeIS6_Lb1EEEy
_ZNSt10_HashtableIjSt4pairIKjS0_IiPFi10CallParamsEEESaIS6_ENSt8__detail10_Select1stESt8equal_toIjE6HasherNS8_18_Mod_range_hashingENS8_20_Default_ranged_hashENS8_20_Prime_rehash_policyENS8_17_Hashtable_traitsILb1ELb0ELb1EEEE21_M_insert_unique_nodeEyyPNS8_10_Hash_nodeIS6_Lb1EEEy:
.LFB8071:
	push	rbp
	.seh_pushreg	rbp
	mov	rbp, rsp
	.seh_setframe	rbp, 0
	sub	rsp, 96
	.seh_stackalloc	96
	.seh_endprologue
	mov	QWORD PTR 16[rbp], rcx
	mov	QWORD PTR 24[rbp], rdx
	mov	QWORD PTR 32[rbp], r8
	mov	QWORD PTR 40[rbp], r9
	mov	rax, QWORD PTR 16[rbp]
	add	rax, 32
	mov	rcx, rax
	call	_ZNKSt8__detail20_Prime_rehash_policy8_M_stateEv
	mov	QWORD PTR -24[rbp], rax
	lea	rax, -24[rbp]
	mov	QWORD PTR -8[rbp], rax
	mov	rax, QWORD PTR 16[rbp]
	lea	rdx, 32[rax]
	mov	rax, QWORD PTR 16[rbp]
	mov	r9, QWORD PTR 24[rax]
	mov	rax, QWORD PTR 16[rbp]
	mov	r8, QWORD PTR 8[rax]
	lea	rax, -48[rbp]
	mov	rcx, QWORD PTR 48[rbp]
	mov	QWORD PTR 32[rsp], rcx
	mov	rcx, rax
	call	_ZNKSt8__detail20_Prime_rehash_policy14_M_need_rehashEyyy
	movzx	eax, BYTE PTR -48[rbp]
	test	al, al
	je	.L233
	mov	rdx, QWORD PTR -40[rbp]
	mov	rcx, QWORD PTR -8[rbp]
	mov	rax, QWORD PTR 16[rbp]
	mov	r8, rcx
	mov	rcx, rax
	call	_ZNSt10_HashtableIjSt4pairIKjS0_IiPFi10CallParamsEEESaIS6_ENSt8__detail10_Select1stESt8equal_toIjE6HasherNS8_18_Mod_range_hashingENS8_20_Default_ranged_hashENS8_20_Prime_rehash_policyENS8_17_Hashtable_traitsILb1ELb0ELb1EEEE9_M_rehashEyRKy
	mov	rdx, QWORD PTR 32[rbp]
	mov	rax, QWORD PTR 16[rbp]
	mov	rcx, rax
	call	_ZNKSt10_HashtableIjSt4pairIKjS0_IiPFi10CallParamsEEESaIS6_ENSt8__detail10_Select1stESt8equal_toIjE6HasherNS8_18_Mod_range_hashingENS8_20_Default_ranged_hashENS8_20_Prime_rehash_policyENS8_17_Hashtable_traitsILb1ELb0ELb1EEEE15_M_bucket_indexEy
	mov	QWORD PTR 24[rbp], rax
.L233:
	mov	rax, QWORD PTR 40[rbp]
	lea	rdx, 32[rax]
	mov	rcx, QWORD PTR 32[rbp]
	mov	rax, QWORD PTR 16[rbp]
	mov	r8, rcx
	mov	rcx, rax
	call	_ZNKSt8__detail15_Hash_code_baseIjSt4pairIKjS1_IiPFi10CallParamsEEENS_10_Select1stE6HasherNS_18_Mod_range_hashingENS_20_Default_ranged_hashELb1EE13_M_store_codeERNS_21_Hash_node_code_cacheILb1EEEy
	mov	rcx, QWORD PTR 40[rbp]
	mov	rdx, QWORD PTR 24[rbp]
	mov	rax, QWORD PTR 16[rbp]
	mov	r8, rcx
	mov	rcx, rax
	call	_ZNSt10_HashtableIjSt4pairIKjS0_IiPFi10CallParamsEEESaIS6_ENSt8__detail10_Select1stESt8equal_toIjE6HasherNS8_18_Mod_range_hashingENS8_20_Default_ranged_hashENS8_20_Prime_rehash_policyENS8_17_Hashtable_traitsILb1ELb0ELb1EEEE22_M_insert_bucket_beginEyPNS8_10_Hash_nodeIS6_Lb1EEE
	mov	rax, QWORD PTR 16[rbp]
	mov	rax, QWORD PTR 24[rax]
	lea	rdx, 1[rax]
	mov	rax, QWORD PTR 16[rbp]
	mov	QWORD PTR 24[rax], rdx
	mov	rdx, QWORD PTR 40[rbp]
	lea	rax, -16[rbp]
	mov	rcx, rax
	call	_ZNSt8__detail14_Node_iteratorISt4pairIKjS1_IiPFi10CallParamsEEELb0ELb1EEC1EPNS_10_Hash_nodeIS7_Lb1EEE
	mov	rax, QWORD PTR -16[rbp]
	add	rsp, 96
	pop	rbp
	ret
	.seh_endproc
	.section	.text$_ZNKSt8__detail14_Node_iteratorISt4pairIKjS1_IiPFi10CallParamsEEELb0ELb1EEptEv,"x"
	.linkonce discard
	.align 2
	.globl	_ZNKSt8__detail14_Node_iteratorISt4pairIKjS1_IiPFi10CallParamsEEELb0ELb1EEptEv
	.def	_ZNKSt8__detail14_Node_iteratorISt4pairIKjS1_IiPFi10CallParamsEEELb0ELb1EEptEv;	.scl	2;	.type	32;	.endef
	.seh_proc	_ZNKSt8__detail14_Node_iteratorISt4pairIKjS1_IiPFi10CallParamsEEELb0ELb1EEptEv
_ZNKSt8__detail14_Node_iteratorISt4pairIKjS1_IiPFi10CallParamsEEELb0ELb1EEptEv:
.LFB8072:
	push	rbp
	.seh_pushreg	rbp
	mov	rbp, rsp
	.seh_setframe	rbp, 0
	sub	rsp, 32
	.seh_stackalloc	32
	.seh_endprologue
	mov	QWORD PTR 16[rbp], rcx
	mov	rax, QWORD PTR 16[rbp]
	mov	rax, QWORD PTR [rax]
	add	rax, 8
	mov	rcx, rax
	call	_ZNSt8__detail21_Hash_node_value_baseISt4pairIKjS1_IiPFi10CallParamsEEEE9_M_valptrEv
	add	rsp, 32
	pop	rbp
	ret
	.seh_endproc
	.section	.text$_ZNKSt8__detail15_Hash_code_baseIjSt4pairIKjS1_IiPFi10CallParamsEEENS_10_Select1stE6HasherNS_18_Mod_range_hashingENS_20_Default_ranged_hashELb1EE7_M_hashEv,"x"
	.linkonce discard
	.align 2
	.globl	_ZNKSt8__detail15_Hash_code_baseIjSt4pairIKjS1_IiPFi10CallParamsEEENS_10_Select1stE6HasherNS_18_Mod_range_hashingENS_20_Default_ranged_hashELb1EE7_M_hashEv
	.def	_ZNKSt8__detail15_Hash_code_baseIjSt4pairIKjS1_IiPFi10CallParamsEEENS_10_Select1stE6HasherNS_18_Mod_range_hashingENS_20_Default_ranged_hashELb1EE7_M_hashEv;	.scl	2;	.type	32;	.endef
	.seh_proc	_ZNKSt8__detail15_Hash_code_baseIjSt4pairIKjS1_IiPFi10CallParamsEEENS_10_Select1stE6HasherNS_18_Mod_range_hashingENS_20_Default_ranged_hashELb1EE7_M_hashEv
_ZNKSt8__detail15_Hash_code_baseIjSt4pairIKjS1_IiPFi10CallParamsEEENS_10_Select1stE6HasherNS_18_Mod_range_hashingENS_20_Default_ranged_hashELb1EE7_M_hashEv:
.LFB8073:
	push	rbp
	.seh_pushreg	rbp
	mov	rbp, rsp
	.seh_setframe	rbp, 0
	sub	rsp, 32
	.seh_stackalloc	32
	.seh_endprologue
	mov	QWORD PTR 16[rbp], rcx
	mov	rax, QWORD PTR 16[rbp]
	mov	rcx, rax
	call	_ZNKSt8__detail21_Hashtable_ebo_helperILi1E6HasherLb1EE7_M_cgetEv
	add	rsp, 32
	pop	rbp
	ret
	.seh_endproc
	.section	.text$_ZNKSt8__detail15_Hash_code_baseIjSt4pairIKjS1_IiPFi10CallParamsEEENS_10_Select1stE6HasherNS_18_Mod_range_hashingENS_20_Default_ranged_hashELb1EE15_M_bucket_indexEyy,"x"
	.linkonce discard
	.align 2
	.globl	_ZNKSt8__detail15_Hash_code_baseIjSt4pairIKjS1_IiPFi10CallParamsEEENS_10_Select1stE6HasherNS_18_Mod_range_hashingENS_20_Default_ranged_hashELb1EE15_M_bucket_indexEyy
	.def	_ZNKSt8__detail15_Hash_code_baseIjSt4pairIKjS1_IiPFi10CallParamsEEENS_10_Select1stE6HasherNS_18_Mod_range_hashingENS_20_Default_ranged_hashELb1EE15_M_bucket_indexEyy;	.scl	2;	.type	32;	.endef
	.seh_proc	_ZNKSt8__detail15_Hash_code_baseIjSt4pairIKjS1_IiPFi10CallParamsEEENS_10_Select1stE6HasherNS_18_Mod_range_hashingENS_20_Default_ranged_hashELb1EE15_M_bucket_indexEyy
_ZNKSt8__detail15_Hash_code_baseIjSt4pairIKjS1_IiPFi10CallParamsEEENS_10_Select1stE6HasherNS_18_Mod_range_hashingENS_20_Default_ranged_hashELb1EE15_M_bucket_indexEyy:
.LFB8074:
	push	rbp
	.seh_pushreg	rbp
	mov	rbp, rsp
	.seh_setframe	rbp, 0
	sub	rsp, 48
	.seh_stackalloc	48
	.seh_endprologue
	mov	QWORD PTR 16[rbp], rcx
	mov	QWORD PTR 24[rbp], rdx
	mov	QWORD PTR 32[rbp], r8
	mov	rcx, QWORD PTR 32[rbp]
	mov	rdx, QWORD PTR 24[rbp]
	lea	rax, -1[rbp]
	mov	r8, rcx
	mov	rcx, rax
	call	_ZNKSt8__detail18_Mod_range_hashingclEyy
	add	rsp, 48
	pop	rbp
	ret
	.seh_endproc
	.section	.text$_ZNKSt10_HashtableIjSt4pairIKjS0_IiPFi10CallParamsEEESaIS6_ENSt8__detail10_Select1stESt8equal_toIjE6HasherNS8_18_Mod_range_hashingENS8_20_Default_ranged_hashENS8_20_Prime_rehash_policyENS8_17_Hashtable_traitsILb1ELb0ELb1EEEE19_M_find_before_nodeEyRS1_y,"x"
	.linkonce discard
	.align 2
	.globl	_ZNKSt10_HashtableIjSt4pairIKjS0_IiPFi10CallParamsEEESaIS6_ENSt8__detail10_Select1stESt8equal_toIjE6HasherNS8_18_Mod_range_hashingENS8_20_Default_ranged_hashENS8_20_Prime_rehash_policyENS8_17_Hashtable_traitsILb1ELb0ELb1EEEE19_M_find_before_nodeEyRS1_y
	.def	_ZNKSt10_HashtableIjSt4pairIKjS0_IiPFi10CallParamsEEESaIS6_ENSt8__detail10_Select1stESt8equal_toIjE6HasherNS8_18_Mod_range_hashingENS8_20_Default_ranged_hashENS8_20_Prime_rehash_policyENS8_17_Hashtable_traitsILb1ELb0ELb1EEEE19_M_find_before_nodeEyRS1_y;	.scl	2;	.type	32;	.endef
	.seh_proc	_ZNKSt10_HashtableIjSt4pairIKjS0_IiPFi10CallParamsEEESaIS6_ENSt8__detail10_Select1stESt8equal_toIjE6HasherNS8_18_Mod_range_hashingENS8_20_Default_ranged_hashENS8_20_Prime_rehash_policyENS8_17_Hashtable_traitsILb1ELb0ELb1EEEE19_M_find_before_nodeEyRS1_y
_ZNKSt10_HashtableIjSt4pairIKjS0_IiPFi10CallParamsEEESaIS6_ENSt8__detail10_Select1stESt8equal_toIjE6HasherNS8_18_Mod_range_hashingENS8_20_Default_ranged_hashENS8_20_Prime_rehash_policyENS8_17_Hashtable_traitsILb1ELb0ELb1EEEE19_M_find_before_nodeEyRS1_y:
.LFB8075:
	push	rbp
	.seh_pushreg	rbp
	mov	rbp, rsp
	.seh_setframe	rbp, 0
	sub	rsp, 48
	.seh_stackalloc	48
	.seh_endprologue
	mov	QWORD PTR 16[rbp], rcx
	mov	QWORD PTR 24[rbp], rdx
	mov	QWORD PTR 32[rbp], r8
	mov	QWORD PTR 40[rbp], r9
	mov	rax, QWORD PTR 16[rbp]
	mov	rax, QWORD PTR [rax]
	mov	rdx, QWORD PTR 24[rbp]
	sal	rdx, 3
	add	rax, rdx
	mov	rax, QWORD PTR [rax]
	mov	QWORD PTR -8[rbp], rax
	cmp	QWORD PTR -8[rbp], 0
	jne	.L242
	mov	eax, 0
	jmp	.L243
.L242:
	mov	rax, QWORD PTR -8[rbp]
	mov	rax, QWORD PTR [rax]
	mov	QWORD PTR -16[rbp], rax
.L250:
	mov	rax, QWORD PTR -16[rbp]
	lea	r8, 8[rax]
	mov	rcx, QWORD PTR 40[rbp]
	mov	rdx, QWORD PTR 32[rbp]
	mov	rax, QWORD PTR 16[rbp]
	mov	r9, r8
	mov	r8, rcx
	mov	rcx, rax
	call	_ZNKSt8__detail15_Hashtable_baseIjSt4pairIKjS1_IiPFi10CallParamsEEENS_10_Select1stESt8equal_toIjE6HasherNS_18_Mod_range_hashingENS_20_Default_ranged_hashENS_17_Hashtable_traitsILb1ELb0ELb1EEEE9_M_equalsERS2_yRKNS_16_Hash_node_valueIS7_Lb1EEE
	test	al, al
	je	.L244
	mov	rax, QWORD PTR -8[rbp]
	jmp	.L243
.L244:
	mov	rax, QWORD PTR -16[rbp]
	mov	rax, QWORD PTR [rax]
	test	rax, rax
	je	.L245
	mov	rax, QWORD PTR -16[rbp]
	mov	rcx, rax
	call	_ZNKSt8__detail10_Hash_nodeISt4pairIKjS1_IiPFi10CallParamsEEELb1EE7_M_nextEv
	lea	rdx, 8[rax]
	mov	rax, QWORD PTR 16[rbp]
	mov	rcx, rax
	call	_ZNKSt10_HashtableIjSt4pairIKjS0_IiPFi10CallParamsEEESaIS6_ENSt8__detail10_Select1stESt8equal_toIjE6HasherNS8_18_Mod_range_hashingENS8_20_Default_ranged_hashENS8_20_Prime_rehash_policyENS8_17_Hashtable_traitsILb1ELb0ELb1EEEE15_M_bucket_indexERKNS8_16_Hash_node_valueIS6_Lb1EEE
	cmp	QWORD PTR 24[rbp], rax
	je	.L246
.L245:
	mov	eax, 1
	jmp	.L247
.L246:
	mov	eax, 0
.L247:
	test	al, al
	jne	.L252
	mov	rax, QWORD PTR -16[rbp]
	mov	QWORD PTR -8[rbp], rax
	mov	rax, QWORD PTR -16[rbp]
	mov	rcx, rax
	call	_ZNKSt8__detail10_Hash_nodeISt4pairIKjS1_IiPFi10CallParamsEEELb1EE7_M_nextEv
	mov	QWORD PTR -16[rbp], rax
	jmp	.L250
.L252:
	nop
	mov	eax, 0
.L243:
	add	rsp, 48
	pop	rbp
	ret
	.seh_endproc
	.section	.text$_ZNSt8__detail21_Hash_node_value_baseISt4pairIKjS1_IiPFi10CallParamsEEEE9_M_valptrEv,"x"
	.linkonce discard
	.align 2
	.globl	_ZNSt8__detail21_Hash_node_value_baseISt4pairIKjS1_IiPFi10CallParamsEEEE9_M_valptrEv
	.def	_ZNSt8__detail21_Hash_node_value_baseISt4pairIKjS1_IiPFi10CallParamsEEEE9_M_valptrEv;	.scl	2;	.type	32;	.endef
	.seh_proc	_ZNSt8__detail21_Hash_node_value_baseISt4pairIKjS1_IiPFi10CallParamsEEEE9_M_valptrEv
_ZNSt8__detail21_Hash_node_value_baseISt4pairIKjS1_IiPFi10CallParamsEEEE9_M_valptrEv:
.LFB8076:
	push	rbp
	.seh_pushreg	rbp
	mov	rbp, rsp
	.seh_setframe	rbp, 0
	sub	rsp, 32
	.seh_stackalloc	32
	.seh_endprologue
	mov	QWORD PTR 16[rbp], rcx
	mov	rax, QWORD PTR 16[rbp]
	mov	rcx, rax
	call	_ZN9__gnu_cxx16__aligned_bufferISt4pairIKjS1_IiPFi10CallParamsEEEE6_M_ptrEv
	add	rsp, 32
	pop	rbp
	ret
	.seh_endproc
	.section	.text$_ZSt7forwardIjEOT_RNSt16remove_referenceIS0_E4typeE,"x"
	.linkonce discard
	.globl	_ZSt7forwardIjEOT_RNSt16remove_referenceIS0_E4typeE
	.def	_ZSt7forwardIjEOT_RNSt16remove_referenceIS0_E4typeE;	.scl	2;	.type	32;	.endef
	.seh_proc	_ZSt7forwardIjEOT_RNSt16remove_referenceIS0_E4typeE
_ZSt7forwardIjEOT_RNSt16remove_referenceIS0_E4typeE:
.LFB8077:
	push	rbp
	.seh_pushreg	rbp
	mov	rbp, rsp
	.seh_setframe	rbp, 0
	.seh_endprologue
	mov	QWORD PTR 16[rbp], rcx
	mov	rax, QWORD PTR 16[rbp]
	pop	rbp
	ret
	.seh_endproc
	.section	.text$_ZNSt5tupleIJOjEEC1IJjELb1ELb1EEEDpOT_,"x"
	.linkonce discard
	.align 2
	.globl	_ZNSt5tupleIJOjEEC1IJjELb1ELb1EEEDpOT_
	.def	_ZNSt5tupleIJOjEEC1IJjELb1ELb1EEEDpOT_;	.scl	2;	.type	32;	.endef
	.seh_proc	_ZNSt5tupleIJOjEEC1IJjELb1ELb1EEEDpOT_
_ZNSt5tupleIJOjEEC1IJjELb1ELb1EEEDpOT_:
.LFB8080:
	push	rbp
	.seh_pushreg	rbp
	push	rbx
	.seh_pushreg	rbx
	sub	rsp, 40
	.seh_stackalloc	40
	lea	rbp, 32[rsp]
	.seh_setframe	rbp, 32
	.seh_endprologue
	mov	QWORD PTR 32[rbp], rcx
	mov	QWORD PTR 40[rbp], rdx
	mov	rbx, QWORD PTR 32[rbp]
	mov	rax, QWORD PTR 40[rbp]
	mov	rcx, rax
	call	_ZSt7forwardIjEOT_RNSt16remove_referenceIS0_E4typeE
	mov	rdx, rax
	mov	rcx, rbx
	call	_ZNSt11_Tuple_implILy0EJOjEEC2IjEEOT_
	nop
	add	rsp, 40
	pop	rbx
	pop	rbp
	ret
	.seh_handler	__gxx_personality_seh0, @unwind, @except
	.seh_handlerdata
.LLSDA8080:
	.byte	0xff
	.byte	0xff
	.byte	0x1
	.uleb128 .LLSDACSE8080-.LLSDACSB8080
.LLSDACSB8080:
.LLSDACSE8080:
	.section	.text$_ZNSt5tupleIJOjEEC1IJjELb1ELb1EEEDpOT_,"x"
	.linkonce discard
	.seh_endproc
	.section	.text$_ZSt7forwardIRKSt21piecewise_construct_tEOT_RNSt16remove_referenceIS3_E4typeE,"x"
	.linkonce discard
	.globl	_ZSt7forwardIRKSt21piecewise_construct_tEOT_RNSt16remove_referenceIS3_E4typeE
	.def	_ZSt7forwardIRKSt21piecewise_construct_tEOT_RNSt16remove_referenceIS3_E4typeE;	.scl	2;	.type	32;	.endef
	.seh_proc	_ZSt7forwardIRKSt21piecewise_construct_tEOT_RNSt16remove_referenceIS3_E4typeE
_ZSt7forwardIRKSt21piecewise_construct_tEOT_RNSt16remove_referenceIS3_E4typeE:
.LFB8081:
	push	rbp
	.seh_pushreg	rbp
	mov	rbp, rsp
	.seh_setframe	rbp, 0
	.seh_endprologue
	mov	QWORD PTR 16[rbp], rcx
	mov	rax, QWORD PTR 16[rbp]
	pop	rbp
	ret
	.seh_endproc
	.section	.text$_ZSt7forwardISt5tupleIJOjEEEOT_RNSt16remove_referenceIS3_E4typeE,"x"
	.linkonce discard
	.globl	_ZSt7forwardISt5tupleIJOjEEEOT_RNSt16remove_referenceIS3_E4typeE
	.def	_ZSt7forwardISt5tupleIJOjEEEOT_RNSt16remove_referenceIS3_E4typeE;	.scl	2;	.type	32;	.endef
	.seh_proc	_ZSt7forwardISt5tupleIJOjEEEOT_RNSt16remove_referenceIS3_E4typeE
_ZSt7forwardISt5tupleIJOjEEEOT_RNSt16remove_referenceIS3_E4typeE:
.LFB8082:
	push	rbp
	.seh_pushreg	rbp
	mov	rbp, rsp
	.seh_setframe	rbp, 0
	.seh_endprologue
	mov	QWORD PTR 16[rbp], rcx
	mov	rax, QWORD PTR 16[rbp]
	pop	rbp
	ret
	.seh_endproc
	.section	.text$_ZSt7forwardISt5tupleIJEEEOT_RNSt16remove_referenceIS2_E4typeE,"x"
	.linkonce discard
	.globl	_ZSt7forwardISt5tupleIJEEEOT_RNSt16remove_referenceIS2_E4typeE
	.def	_ZSt7forwardISt5tupleIJEEEOT_RNSt16remove_referenceIS2_E4typeE;	.scl	2;	.type	32;	.endef
	.seh_proc	_ZSt7forwardISt5tupleIJEEEOT_RNSt16remove_referenceIS2_E4typeE
_ZSt7forwardISt5tupleIJEEEOT_RNSt16remove_referenceIS2_E4typeE:
.LFB8083:
	push	rbp
	.seh_pushreg	rbp
	mov	rbp, rsp
	.seh_setframe	rbp, 0
	.seh_endprologue
	mov	QWORD PTR 16[rbp], rcx
	mov	rax, QWORD PTR 16[rbp]
	pop	rbp
	ret
	.seh_endproc
	.section	.text$_ZNSt8__detail10_Hash_nodeISt4pairIKjS1_IiPFi10CallParamsEEELb1EEC1Ev,"x"
	.linkonce discard
	.align 2
	.globl	_ZNSt8__detail10_Hash_nodeISt4pairIKjS1_IiPFi10CallParamsEEELb1EEC1Ev
	.def	_ZNSt8__detail10_Hash_nodeISt4pairIKjS1_IiPFi10CallParamsEEELb1EEC1Ev;	.scl	2;	.type	32;	.endef
	.seh_proc	_ZNSt8__detail10_Hash_nodeISt4pairIKjS1_IiPFi10CallParamsEEELb1EEC1Ev
_ZNSt8__detail10_Hash_nodeISt4pairIKjS1_IiPFi10CallParamsEEELb1EEC1Ev:
.LFB8087:
	push	rbp
	.seh_pushreg	rbp
	mov	rbp, rsp
	.seh_setframe	rbp, 0
	sub	rsp, 32
	.seh_stackalloc	32
	.seh_endprologue
	mov	QWORD PTR 16[rbp], rcx
	mov	rax, QWORD PTR 16[rbp]
	mov	rcx, rax
	call	_ZNSt8__detail15_Hash_node_baseC2Ev
	nop
	add	rsp, 32
	pop	rbp
	ret
	.seh_endproc
	.section	.text$_ZNSt8__detail16_Hashtable_allocISaINS_10_Hash_nodeISt4pairIKjS2_IiPFi10CallParamsEEELb1EEEEE16_M_allocate_nodeIJRKSt21piecewise_construct_tSt5tupleIJOjEESG_IJEEEEEPS9_DpOT_,"x"
	.linkonce discard
	.align 2
	.globl	_ZNSt8__detail16_Hashtable_allocISaINS_10_Hash_nodeISt4pairIKjS2_IiPFi10CallParamsEEELb1EEEEE16_M_allocate_nodeIJRKSt21piecewise_construct_tSt5tupleIJOjEESG_IJEEEEEPS9_DpOT_
	.def	_ZNSt8__detail16_Hashtable_allocISaINS_10_Hash_nodeISt4pairIKjS2_IiPFi10CallParamsEEELb1EEEEE16_M_allocate_nodeIJRKSt21piecewise_construct_tSt5tupleIJOjEESG_IJEEEEEPS9_DpOT_;	.scl	2;	.type	32;	.endef
	.seh_proc	_ZNSt8__detail16_Hashtable_allocISaINS_10_Hash_nodeISt4pairIKjS2_IiPFi10CallParamsEEELb1EEEEE16_M_allocate_nodeIJRKSt21piecewise_construct_tSt5tupleIJOjEESG_IJEEEEEPS9_DpOT_
_ZNSt8__detail16_Hashtable_allocISaINS_10_Hash_nodeISt4pairIKjS2_IiPFi10CallParamsEEELb1EEEEE16_M_allocate_nodeIJRKSt21piecewise_construct_tSt5tupleIJOjEESG_IJEEEEEPS9_DpOT_:
.LFB8084:
	push	rbp
	.seh_pushreg	rbp
	push	r12
	.seh_pushreg	r12
	push	rdi
	.seh_pushreg	rdi
	push	rsi
	.seh_pushreg	rsi
	push	rbx
	.seh_pushreg	rbx
	sub	rsp, 64
	.seh_stackalloc	64
	lea	rbp, 64[rsp]
	.seh_setframe	rbp, 64
	.seh_endprologue
	mov	QWORD PTR 48[rbp], rcx
	mov	QWORD PTR 56[rbp], rdx
	mov	QWORD PTR 64[rbp], r8
	mov	QWORD PTR 72[rbp], r9
	mov	rax, QWORD PTR 48[rbp]
	mov	rcx, rax
.LEHB3:
	call	_ZNSt8__detail16_Hashtable_allocISaINS_10_Hash_nodeISt4pairIKjS2_IiPFi10CallParamsEEELb1EEEEE17_M_node_allocatorEv
	mov	edx, 1
	mov	rcx, rax
	call	_ZNSt16allocator_traitsISaINSt8__detail10_Hash_nodeISt4pairIKjS2_IiPFi10CallParamsEEELb1EEEEE8allocateERSA_y
.LEHE3:
	mov	QWORD PTR -8[rbp], rax
	mov	rax, QWORD PTR -8[rbp]
	mov	rcx, rax
	call	_ZSt12__to_addressINSt8__detail10_Hash_nodeISt4pairIKjS2_IiPFi10CallParamsEEELb1EEEEPT_SB_
	mov	QWORD PTR -16[rbp], rax
	mov	rax, QWORD PTR -16[rbp]
	mov	rdx, rax
	mov	ecx, 40
	call	_ZnwyPv
	mov	rcx, rax
	call	_ZNSt8__detail10_Hash_nodeISt4pairIKjS1_IiPFi10CallParamsEEELb1EEC1Ev
	mov	rax, QWORD PTR 72[rbp]
	mov	rcx, rax
	call	_ZSt7forwardISt5tupleIJEEEOT_RNSt16remove_referenceIS2_E4typeE
	mov	rbx, rax
	mov	rax, QWORD PTR 64[rbp]
	mov	rcx, rax
	call	_ZSt7forwardISt5tupleIJOjEEEOT_RNSt16remove_referenceIS3_E4typeE
	mov	r12, rax
	mov	rax, QWORD PTR 56[rbp]
	mov	rcx, rax
	call	_ZSt7forwardIRKSt21piecewise_construct_tEOT_RNSt16remove_referenceIS3_E4typeE
	mov	rdi, rax
	mov	rax, QWORD PTR -16[rbp]
	add	rax, 8
	mov	rcx, rax
	call	_ZNSt8__detail21_Hash_node_value_baseISt4pairIKjS1_IiPFi10CallParamsEEEE9_M_valptrEv
	mov	rsi, rax
	mov	rax, QWORD PTR 48[rbp]
	mov	rcx, rax
.LEHB4:
	call	_ZNSt8__detail16_Hashtable_allocISaINS_10_Hash_nodeISt4pairIKjS2_IiPFi10CallParamsEEELb1EEEEE17_M_node_allocatorEv
	mov	QWORD PTR 32[rsp], rbx
	mov	r9, r12
	mov	r8, rdi
	mov	rdx, rsi
	mov	rcx, rax
	call	_ZNSt16allocator_traitsISaINSt8__detail10_Hash_nodeISt4pairIKjS2_IiPFi10CallParamsEEELb1EEEEE9constructIS8_JRKSt21piecewise_construct_tSt5tupleIJOjEESG_IJEEEEEvRSA_PT_DpOT0_
.LEHE4:
	mov	rax, QWORD PTR -16[rbp]
	jmp	.L271
.L269:
	mov	rcx, rax
	call	__cxa_begin_catch
	mov	rax, QWORD PTR 48[rbp]
	mov	rcx, rax
.LEHB5:
	call	_ZNSt8__detail16_Hashtable_allocISaINS_10_Hash_nodeISt4pairIKjS2_IiPFi10CallParamsEEELb1EEEEE17_M_node_allocatorEv
	mov	rcx, rax
	mov	rax, QWORD PTR -8[rbp]
	mov	r8d, 1
	mov	rdx, rax
	call	_ZNSt16allocator_traitsISaINSt8__detail10_Hash_nodeISt4pairIKjS2_IiPFi10CallParamsEEELb1EEEEE10deallocateERSA_PS9_y
	call	__cxa_rethrow
.LEHE5:
.L270:
	mov	rbx, rax
	call	__cxa_end_catch
	mov	rax, rbx
	mov	rcx, rax
.LEHB6:
	call	_Unwind_Resume
.LEHE6:
.L271:
	add	rsp, 64
	pop	rbx
	pop	rsi
	pop	rdi
	pop	r12
	pop	rbp
	ret
	.seh_handler	__gxx_personality_seh0, @unwind, @except
	.seh_handlerdata
	.align 4
.LLSDA8084:
	.byte	0xff
	.byte	0x9b
	.uleb128 .LLSDATT8084-.LLSDATTD8084
.LLSDATTD8084:
	.byte	0x1
	.uleb128 .LLSDACSE8084-.LLSDACSB8084
.LLSDACSB8084:
	.uleb128 .LEHB3-.LFB8084
	.uleb128 .LEHE3-.LEHB3
	.uleb128 0
	.uleb128 0
	.uleb128 .LEHB4-.LFB8084
	.uleb128 .LEHE4-.LEHB4
	.uleb128 .L269-.LFB8084
	.uleb128 0x1
	.uleb128 .LEHB5-.LFB8084
	.uleb128 .LEHE5-.LEHB5
	.uleb128 .L270-.LFB8084
	.uleb128 0
	.uleb128 .LEHB6-.LFB8084
	.uleb128 .LEHE6-.LEHB6
	.uleb128 0
	.uleb128 0
.LLSDACSE8084:
	.byte	0x1
	.byte	0
	.align 4
	.long	0

.LLSDATT8084:
	.section	.text$_ZNSt8__detail16_Hashtable_allocISaINS_10_Hash_nodeISt4pairIKjS2_IiPFi10CallParamsEEELb1EEEEE16_M_allocate_nodeIJRKSt21piecewise_construct_tSt5tupleIJOjEESG_IJEEEEEPS9_DpOT_,"x"
	.linkonce discard
	.seh_endproc
	.section	.text$_ZNSt8__detail16_Hashtable_allocISaINS_10_Hash_nodeISt4pairIKjS2_IiPFi10CallParamsEEELb1EEEEE18_M_deallocate_nodeEPS9_,"x"
	.linkonce discard
	.align 2
	.globl	_ZNSt8__detail16_Hashtable_allocISaINS_10_Hash_nodeISt4pairIKjS2_IiPFi10CallParamsEEELb1EEEEE18_M_deallocate_nodeEPS9_
	.def	_ZNSt8__detail16_Hashtable_allocISaINS_10_Hash_nodeISt4pairIKjS2_IiPFi10CallParamsEEELb1EEEEE18_M_deallocate_nodeEPS9_;	.scl	2;	.type	32;	.endef
	.seh_proc	_ZNSt8__detail16_Hashtable_allocISaINS_10_Hash_nodeISt4pairIKjS2_IiPFi10CallParamsEEELb1EEEEE18_M_deallocate_nodeEPS9_
_ZNSt8__detail16_Hashtable_allocISaINS_10_Hash_nodeISt4pairIKjS2_IiPFi10CallParamsEEELb1EEEEE18_M_deallocate_nodeEPS9_:
.LFB8089:
	push	rbp
	.seh_pushreg	rbp
	push	rbx
	.seh_pushreg	rbx
	sub	rsp, 40
	.seh_stackalloc	40
	lea	rbp, 32[rsp]
	.seh_setframe	rbp, 32
	.seh_endprologue
	mov	QWORD PTR 32[rbp], rcx
	mov	QWORD PTR 40[rbp], rdx
	mov	rax, QWORD PTR 40[rbp]
	add	rax, 8
	mov	rcx, rax
	call	_ZNSt8__detail21_Hash_node_value_baseISt4pairIKjS1_IiPFi10CallParamsEEEE9_M_valptrEv
	mov	rbx, rax
	mov	rax, QWORD PTR 32[rbp]
	mov	rcx, rax
	call	_ZNSt8__detail16_Hashtable_allocISaINS_10_Hash_nodeISt4pairIKjS2_IiPFi10CallParamsEEELb1EEEEE17_M_node_allocatorEv
	mov	rdx, rbx
	mov	rcx, rax
	call	_ZNSt16allocator_traitsISaINSt8__detail10_Hash_nodeISt4pairIKjS2_IiPFi10CallParamsEEELb1EEEEE7destroyIS8_EEvRSA_PT_
	mov	rdx, QWORD PTR 40[rbp]
	mov	rax, QWORD PTR 32[rbp]
	mov	rcx, rax
	call	_ZNSt8__detail16_Hashtable_allocISaINS_10_Hash_nodeISt4pairIKjS2_IiPFi10CallParamsEEELb1EEEEE22_M_deallocate_node_ptrEPS9_
	nop
	add	rsp, 40
	pop	rbx
	pop	rbp
	ret
	.seh_endproc
	.section	.text$_ZNSt10_HashtableIjSt4pairIKjS0_IiPFi10CallParamsEEESaIS6_ENSt8__detail10_Select1stESt8equal_toIjE6HasherNS8_18_Mod_range_hashingENS8_20_Default_ranged_hashENS8_20_Prime_rehash_policyENS8_17_Hashtable_traitsILb1ELb0ELb1EEEE9_M_rehashEyRKy,"x"
	.linkonce discard
	.align 2
	.globl	_ZNSt10_HashtableIjSt4pairIKjS0_IiPFi10CallParamsEEESaIS6_ENSt8__detail10_Select1stESt8equal_toIjE6HasherNS8_18_Mod_range_hashingENS8_20_Default_ranged_hashENS8_20_Prime_rehash_policyENS8_17_Hashtable_traitsILb1ELb0ELb1EEEE9_M_rehashEyRKy
	.def	_ZNSt10_HashtableIjSt4pairIKjS0_IiPFi10CallParamsEEESaIS6_ENSt8__detail10_Select1stESt8equal_toIjE6HasherNS8_18_Mod_range_hashingENS8_20_Default_ranged_hashENS8_20_Prime_rehash_policyENS8_17_Hashtable_traitsILb1ELb0ELb1EEEE9_M_rehashEyRKy;	.scl	2;	.type	32;	.endef
	.seh_proc	_ZNSt10_HashtableIjSt4pairIKjS0_IiPFi10CallParamsEEESaIS6_ENSt8__detail10_Select1stESt8equal_toIjE6HasherNS8_18_Mod_range_hashingENS8_20_Default_ranged_hashENS8_20_Prime_rehash_policyENS8_17_Hashtable_traitsILb1ELb0ELb1EEEE9_M_rehashEyRKy
_ZNSt10_HashtableIjSt4pairIKjS0_IiPFi10CallParamsEEESaIS6_ENSt8__detail10_Select1stESt8equal_toIjE6HasherNS8_18_Mod_range_hashingENS8_20_Default_ranged_hashENS8_20_Prime_rehash_policyENS8_17_Hashtable_traitsILb1ELb0ELb1EEEE9_M_rehashEyRKy:
.LFB8090:
	push	rbp
	.seh_pushreg	rbp
	push	rbx
	.seh_pushreg	rbx
	sub	rsp, 40
	.seh_stackalloc	40
	lea	rbp, 32[rsp]
	.seh_setframe	rbp, 32
	.seh_endprologue
	mov	QWORD PTR 32[rbp], rcx
	mov	QWORD PTR 40[rbp], rdx
	mov	QWORD PTR 48[rbp], r8
	mov	rdx, QWORD PTR 40[rbp]
	mov	rax, QWORD PTR 32[rbp]
	mov	r8d, r9d
	mov	rcx, rax
.LEHB7:
	call	_ZNSt10_HashtableIjSt4pairIKjS0_IiPFi10CallParamsEEESaIS6_ENSt8__detail10_Select1stESt8equal_toIjE6HasherNS8_18_Mod_range_hashingENS8_20_Default_ranged_hashENS8_20_Prime_rehash_policyENS8_17_Hashtable_traitsILb1ELb0ELb1EEEE13_M_rehash_auxEySt17integral_constantIbLb1EE
.LEHE7:
	jmp	.L278
.L276:
	mov	rcx, rax
	call	__cxa_begin_catch
	mov	rax, QWORD PTR 32[rbp]
	lea	rcx, 32[rax]
	mov	rax, QWORD PTR 48[rbp]
	mov	rax, QWORD PTR [rax]
	mov	rdx, rax
	call	_ZNSt8__detail20_Prime_rehash_policy8_M_resetEy
.LEHB8:
	call	__cxa_rethrow
.LEHE8:
.L277:
	mov	rbx, rax
	call	__cxa_end_catch
	mov	rax, rbx
	mov	rcx, rax
.LEHB9:
	call	_Unwind_Resume
	nop
.LEHE9:
.L278:
	add	rsp, 40
	pop	rbx
	pop	rbp
	ret
	.seh_handler	__gxx_personality_seh0, @unwind, @except
	.seh_handlerdata
	.align 4
.LLSDA8090:
	.byte	0xff
	.byte	0x9b
	.uleb128 .LLSDATT8090-.LLSDATTD8090
.LLSDATTD8090:
	.byte	0x1
	.uleb128 .LLSDACSE8090-.LLSDACSB8090
.LLSDACSB8090:
	.uleb128 .LEHB7-.LFB8090
	.uleb128 .LEHE7-.LEHB7
	.uleb128 .L276-.LFB8090
	.uleb128 0x1
	.uleb128 .LEHB8-.LFB8090
	.uleb128 .LEHE8-.LEHB8
	.uleb128 .L277-.LFB8090
	.uleb128 0
	.uleb128 .LEHB9-.LFB8090
	.uleb128 .LEHE9-.LEHB9
	.uleb128 0
	.uleb128 0
.LLSDACSE8090:
	.byte	0x1
	.byte	0
	.align 4
	.long	0

.LLSDATT8090:
	.section	.text$_ZNSt10_HashtableIjSt4pairIKjS0_IiPFi10CallParamsEEESaIS6_ENSt8__detail10_Select1stESt8equal_toIjE6HasherNS8_18_Mod_range_hashingENS8_20_Default_ranged_hashENS8_20_Prime_rehash_policyENS8_17_Hashtable_traitsILb1ELb0ELb1EEEE9_M_rehashEyRKy,"x"
	.linkonce discard
	.seh_endproc
	.section	.text$_ZNKSt8__detail15_Hash_code_baseIjSt4pairIKjS1_IiPFi10CallParamsEEENS_10_Select1stE6HasherNS_18_Mod_range_hashingENS_20_Default_ranged_hashELb1EE13_M_store_codeERNS_21_Hash_node_code_cacheILb1EEEy,"x"
	.linkonce discard
	.align 2
	.globl	_ZNKSt8__detail15_Hash_code_baseIjSt4pairIKjS1_IiPFi10CallParamsEEENS_10_Select1stE6HasherNS_18_Mod_range_hashingENS_20_Default_ranged_hashELb1EE13_M_store_codeERNS_21_Hash_node_code_cacheILb1EEEy
	.def	_ZNKSt8__detail15_Hash_code_baseIjSt4pairIKjS1_IiPFi10CallParamsEEENS_10_Select1stE6HasherNS_18_Mod_range_hashingENS_20_Default_ranged_hashELb1EE13_M_store_codeERNS_21_Hash_node_code_cacheILb1EEEy;	.scl	2;	.type	32;	.endef
	.seh_proc	_ZNKSt8__detail15_Hash_code_baseIjSt4pairIKjS1_IiPFi10CallParamsEEENS_10_Select1stE6HasherNS_18_Mod_range_hashingENS_20_Default_ranged_hashELb1EE13_M_store_codeERNS_21_Hash_node_code_cacheILb1EEEy
_ZNKSt8__detail15_Hash_code_baseIjSt4pairIKjS1_IiPFi10CallParamsEEENS_10_Select1stE6HasherNS_18_Mod_range_hashingENS_20_Default_ranged_hashELb1EE13_M_store_codeERNS_21_Hash_node_code_cacheILb1EEEy:
.LFB8091:
	push	rbp
	.seh_pushreg	rbp
	mov	rbp, rsp
	.seh_setframe	rbp, 0
	.seh_endprologue
	mov	QWORD PTR 16[rbp], rcx
	mov	QWORD PTR 24[rbp], rdx
	mov	QWORD PTR 32[rbp], r8
	mov	rax, QWORD PTR 24[rbp]
	mov	rdx, QWORD PTR 32[rbp]
	mov	QWORD PTR [rax], rdx
	nop
	pop	rbp
	ret
	.seh_endproc
	.section	.text$_ZNSt10_HashtableIjSt4pairIKjS0_IiPFi10CallParamsEEESaIS6_ENSt8__detail10_Select1stESt8equal_toIjE6HasherNS8_18_Mod_range_hashingENS8_20_Default_ranged_hashENS8_20_Prime_rehash_policyENS8_17_Hashtable_traitsILb1ELb0ELb1EEEE22_M_insert_bucket_beginEyPNS8_10_Hash_nodeIS6_Lb1EEE,"x"
	.linkonce discard
	.align 2
	.globl	_ZNSt10_HashtableIjSt4pairIKjS0_IiPFi10CallParamsEEESaIS6_ENSt8__detail10_Select1stESt8equal_toIjE6HasherNS8_18_Mod_range_hashingENS8_20_Default_ranged_hashENS8_20_Prime_rehash_policyENS8_17_Hashtable_traitsILb1ELb0ELb1EEEE22_M_insert_bucket_beginEyPNS8_10_Hash_nodeIS6_Lb1EEE
	.def	_ZNSt10_HashtableIjSt4pairIKjS0_IiPFi10CallParamsEEESaIS6_ENSt8__detail10_Select1stESt8equal_toIjE6HasherNS8_18_Mod_range_hashingENS8_20_Default_ranged_hashENS8_20_Prime_rehash_policyENS8_17_Hashtable_traitsILb1ELb0ELb1EEEE22_M_insert_bucket_beginEyPNS8_10_Hash_nodeIS6_Lb1EEE;	.scl	2;	.type	32;	.endef
	.seh_proc	_ZNSt10_HashtableIjSt4pairIKjS0_IiPFi10CallParamsEEESaIS6_ENSt8__detail10_Select1stESt8equal_toIjE6HasherNS8_18_Mod_range_hashingENS8_20_Default_ranged_hashENS8_20_Prime_rehash_policyENS8_17_Hashtable_traitsILb1ELb0ELb1EEEE22_M_insert_bucket_beginEyPNS8_10_Hash_nodeIS6_Lb1EEE
_ZNSt10_HashtableIjSt4pairIKjS0_IiPFi10CallParamsEEESaIS6_ENSt8__detail10_Select1stESt8equal_toIjE6HasherNS8_18_Mod_range_hashingENS8_20_Default_ranged_hashENS8_20_Prime_rehash_policyENS8_17_Hashtable_traitsILb1ELb0ELb1EEEE22_M_insert_bucket_beginEyPNS8_10_Hash_nodeIS6_Lb1EEE:
.LFB8092:
	push	rbp
	.seh_pushreg	rbp
	push	rsi
	.seh_pushreg	rsi
	push	rbx
	.seh_pushreg	rbx
	sub	rsp, 32
	.seh_stackalloc	32
	lea	rbp, 32[rsp]
	.seh_setframe	rbp, 32
	.seh_endprologue
	mov	QWORD PTR 32[rbp], rcx
	mov	QWORD PTR 40[rbp], rdx
	mov	QWORD PTR 48[rbp], r8
	mov	rax, QWORD PTR 32[rbp]
	mov	rax, QWORD PTR [rax]
	mov	rdx, QWORD PTR 40[rbp]
	sal	rdx, 3
	add	rax, rdx
	mov	rax, QWORD PTR [rax]
	test	rax, rax
	je	.L281
	mov	rax, QWORD PTR 32[rbp]
	mov	rax, QWORD PTR [rax]
	mov	rdx, QWORD PTR 40[rbp]
	sal	rdx, 3
	add	rax, rdx
	mov	rax, QWORD PTR [rax]
	mov	rdx, QWORD PTR [rax]
	mov	rax, QWORD PTR 48[rbp]
	mov	QWORD PTR [rax], rdx
	mov	rax, QWORD PTR 32[rbp]
	mov	rax, QWORD PTR [rax]
	mov	rdx, QWORD PTR 40[rbp]
	sal	rdx, 3
	add	rax, rdx
	mov	rax, QWORD PTR [rax]
	mov	rdx, QWORD PTR 48[rbp]
	mov	QWORD PTR [rax], rdx
	jmp	.L284
.L281:
	mov	rax, QWORD PTR 32[rbp]
	mov	rdx, QWORD PTR 16[rax]
	mov	rax, QWORD PTR 48[rbp]
	mov	QWORD PTR [rax], rdx
	mov	rax, QWORD PTR 32[rbp]
	mov	rdx, QWORD PTR 48[rbp]
	mov	QWORD PTR 16[rax], rdx
	mov	rax, QWORD PTR 48[rbp]
	mov	rax, QWORD PTR [rax]
	test	rax, rax
	je	.L283
	mov	rbx, QWORD PTR 48[rbp]
	mov	rax, QWORD PTR 32[rbp]
	mov	rsi, QWORD PTR [rax]
	mov	rax, QWORD PTR 48[rbp]
	mov	rcx, rax
	call	_ZNKSt8__detail10_Hash_nodeISt4pairIKjS1_IiPFi10CallParamsEEELb1EE7_M_nextEv
	lea	rdx, 8[rax]
	mov	rax, QWORD PTR 32[rbp]
	mov	rcx, rax
	call	_ZNKSt10_HashtableIjSt4pairIKjS0_IiPFi10CallParamsEEESaIS6_ENSt8__detail10_Select1stESt8equal_toIjE6HasherNS8_18_Mod_range_hashingENS8_20_Default_ranged_hashENS8_20_Prime_rehash_policyENS8_17_Hashtable_traitsILb1ELb0ELb1EEEE15_M_bucket_indexERKNS8_16_Hash_node_valueIS6_Lb1EEE
	sal	rax, 3
	add	rax, rsi
	mov	QWORD PTR [rax], rbx
.L283:
	mov	rax, QWORD PTR 32[rbp]
	mov	rax, QWORD PTR [rax]
	mov	rdx, QWORD PTR 40[rbp]
	sal	rdx, 3
	add	rax, rdx
	mov	rdx, QWORD PTR 32[rbp]
	add	rdx, 16
	mov	QWORD PTR [rax], rdx
.L284:
	nop
	add	rsp, 32
	pop	rbx
	pop	rsi
	pop	rbp
	ret
	.seh_endproc
	.section	.text$_ZNSt8__detail14_Node_iteratorISt4pairIKjS1_IiPFi10CallParamsEEELb0ELb1EEC1EPNS_10_Hash_nodeIS7_Lb1EEE,"x"
	.linkonce discard
	.align 2
	.globl	_ZNSt8__detail14_Node_iteratorISt4pairIKjS1_IiPFi10CallParamsEEELb0ELb1EEC1EPNS_10_Hash_nodeIS7_Lb1EEE
	.def	_ZNSt8__detail14_Node_iteratorISt4pairIKjS1_IiPFi10CallParamsEEELb0ELb1EEC1EPNS_10_Hash_nodeIS7_Lb1EEE;	.scl	2;	.type	32;	.endef
	.seh_proc	_ZNSt8__detail14_Node_iteratorISt4pairIKjS1_IiPFi10CallParamsEEELb0ELb1EEC1EPNS_10_Hash_nodeIS7_Lb1EEE
_ZNSt8__detail14_Node_iteratorISt4pairIKjS1_IiPFi10CallParamsEEELb0ELb1EEC1EPNS_10_Hash_nodeIS7_Lb1EEE:
.LFB8095:
	push	rbp
	.seh_pushreg	rbp
	mov	rbp, rsp
	.seh_setframe	rbp, 0
	sub	rsp, 32
	.seh_stackalloc	32
	.seh_endprologue
	mov	QWORD PTR 16[rbp], rcx
	mov	QWORD PTR 24[rbp], rdx
	mov	rax, QWORD PTR 16[rbp]
	mov	rdx, QWORD PTR 24[rbp]
	mov	rcx, rax
	call	_ZNSt8__detail19_Node_iterator_baseISt4pairIKjS1_IiPFi10CallParamsEEELb1EEC2EPNS_10_Hash_nodeIS7_Lb1EEE
	nop
	add	rsp, 32
	pop	rbp
	ret
	.seh_endproc
	.section	.text$_ZNKSt8__detail21_Hashtable_ebo_helperILi1E6HasherLb1EE7_M_cgetEv,"x"
	.linkonce discard
	.align 2
	.globl	_ZNKSt8__detail21_Hashtable_ebo_helperILi1E6HasherLb1EE7_M_cgetEv
	.def	_ZNKSt8__detail21_Hashtable_ebo_helperILi1E6HasherLb1EE7_M_cgetEv;	.scl	2;	.type	32;	.endef
	.seh_proc	_ZNKSt8__detail21_Hashtable_ebo_helperILi1E6HasherLb1EE7_M_cgetEv
_ZNKSt8__detail21_Hashtable_ebo_helperILi1E6HasherLb1EE7_M_cgetEv:
.LFB8096:
	push	rbp
	.seh_pushreg	rbp
	mov	rbp, rsp
	.seh_setframe	rbp, 0
	.seh_endprologue
	mov	QWORD PTR 16[rbp], rcx
	mov	rax, QWORD PTR 16[rbp]
	pop	rbp
	ret
	.seh_endproc
	.section	.text$_ZNKSt8__detail10_Hash_nodeISt4pairIKjS1_IiPFi10CallParamsEEELb1EE7_M_nextEv,"x"
	.linkonce discard
	.align 2
	.globl	_ZNKSt8__detail10_Hash_nodeISt4pairIKjS1_IiPFi10CallParamsEEELb1EE7_M_nextEv
	.def	_ZNKSt8__detail10_Hash_nodeISt4pairIKjS1_IiPFi10CallParamsEEELb1EE7_M_nextEv;	.scl	2;	.type	32;	.endef
	.seh_proc	_ZNKSt8__detail10_Hash_nodeISt4pairIKjS1_IiPFi10CallParamsEEELb1EE7_M_nextEv
_ZNKSt8__detail10_Hash_nodeISt4pairIKjS1_IiPFi10CallParamsEEELb1EE7_M_nextEv:
.LFB8097:
	push	rbp
	.seh_pushreg	rbp
	mov	rbp, rsp
	.seh_setframe	rbp, 0
	.seh_endprologue
	mov	QWORD PTR 16[rbp], rcx
	mov	rax, QWORD PTR 16[rbp]
	mov	rax, QWORD PTR [rax]
	pop	rbp
	ret
	.seh_endproc
	.section	.text$_ZNKSt8__detail15_Hashtable_baseIjSt4pairIKjS1_IiPFi10CallParamsEEENS_10_Select1stESt8equal_toIjE6HasherNS_18_Mod_range_hashingENS_20_Default_ranged_hashENS_17_Hashtable_traitsILb1ELb0ELb1EEEE9_M_equalsERS2_yRKNS_16_Hash_node_valueIS7_Lb1EEE,"x"
	.linkonce discard
	.align 2
	.globl	_ZNKSt8__detail15_Hashtable_baseIjSt4pairIKjS1_IiPFi10CallParamsEEENS_10_Select1stESt8equal_toIjE6HasherNS_18_Mod_range_hashingENS_20_Default_ranged_hashENS_17_Hashtable_traitsILb1ELb0ELb1EEEE9_M_equalsERS2_yRKNS_16_Hash_node_valueIS7_Lb1EEE
	.def	_ZNKSt8__detail15_Hashtable_baseIjSt4pairIKjS1_IiPFi10CallParamsEEENS_10_Select1stESt8equal_toIjE6HasherNS_18_Mod_range_hashingENS_20_Default_ranged_hashENS_17_Hashtable_traitsILb1ELb0ELb1EEEE9_M_equalsERS2_yRKNS_16_Hash_node_valueIS7_Lb1EEE;	.scl	2;	.type	32;	.endef
	.seh_proc	_ZNKSt8__detail15_Hashtable_baseIjSt4pairIKjS1_IiPFi10CallParamsEEENS_10_Select1stESt8equal_toIjE6HasherNS_18_Mod_range_hashingENS_20_Default_ranged_hashENS_17_Hashtable_traitsILb1ELb0ELb1EEEE9_M_equalsERS2_yRKNS_16_Hash_node_valueIS7_Lb1EEE
_ZNKSt8__detail15_Hashtable_baseIjSt4pairIKjS1_IiPFi10CallParamsEEENS_10_Select1stESt8equal_toIjE6HasherNS_18_Mod_range_hashingENS_20_Default_ranged_hashENS_17_Hashtable_traitsILb1ELb0ELb1EEEE9_M_equalsERS2_yRKNS_16_Hash_node_valueIS7_Lb1EEE:
.LFB8098:
	push	rbp
	.seh_pushreg	rbp
	mov	rbp, rsp
	.seh_setframe	rbp, 0
	sub	rsp, 32
	.seh_stackalloc	32
	.seh_endprologue
	mov	QWORD PTR 16[rbp], rcx
	mov	QWORD PTR 24[rbp], rdx
	mov	QWORD PTR 32[rbp], r8
	mov	QWORD PTR 40[rbp], r9
	mov	rax, QWORD PTR 40[rbp]
	lea	rdx, 24[rax]
	mov	rax, QWORD PTR 32[rbp]
	mov	rcx, rax
	call	_ZNSt8__detail15_Hashtable_baseIjSt4pairIKjS1_IiPFi10CallParamsEEENS_10_Select1stESt8equal_toIjE6HasherNS_18_Mod_range_hashingENS_20_Default_ranged_hashENS_17_Hashtable_traitsILb1ELb0ELb1EEEE9_S_equalsEyRKNS_21_Hash_node_code_cacheILb1EEE
	test	al, al
	je	.L291
	mov	rcx, QWORD PTR 40[rbp]
	mov	rdx, QWORD PTR 24[rbp]
	mov	rax, QWORD PTR 16[rbp]
	mov	r8, rcx
	mov	rcx, rax
	call	_ZNKSt8__detail15_Hashtable_baseIjSt4pairIKjS1_IiPFi10CallParamsEEENS_10_Select1stESt8equal_toIjE6HasherNS_18_Mod_range_hashingENS_20_Default_ranged_hashENS_17_Hashtable_traitsILb1ELb0ELb1EEEE13_M_key_equalsERS2_RKNS_16_Hash_node_valueIS7_Lb1EEE
	test	al, al
	je	.L291
	mov	eax, 1
	jmp	.L292
.L291:
	mov	eax, 0
.L292:
	add	rsp, 32
	pop	rbp
	ret
	.seh_endproc
	.section	.text$_ZNKSt10_HashtableIjSt4pairIKjS0_IiPFi10CallParamsEEESaIS6_ENSt8__detail10_Select1stESt8equal_toIjE6HasherNS8_18_Mod_range_hashingENS8_20_Default_ranged_hashENS8_20_Prime_rehash_policyENS8_17_Hashtable_traitsILb1ELb0ELb1EEEE15_M_bucket_indexERKNS8_16_Hash_node_valueIS6_Lb1EEE,"x"
	.linkonce discard
	.align 2
	.globl	_ZNKSt10_HashtableIjSt4pairIKjS0_IiPFi10CallParamsEEESaIS6_ENSt8__detail10_Select1stESt8equal_toIjE6HasherNS8_18_Mod_range_hashingENS8_20_Default_ranged_hashENS8_20_Prime_rehash_policyENS8_17_Hashtable_traitsILb1ELb0ELb1EEEE15_M_bucket_indexERKNS8_16_Hash_node_valueIS6_Lb1EEE
	.def	_ZNKSt10_HashtableIjSt4pairIKjS0_IiPFi10CallParamsEEESaIS6_ENSt8__detail10_Select1stESt8equal_toIjE6HasherNS8_18_Mod_range_hashingENS8_20_Default_ranged_hashENS8_20_Prime_rehash_policyENS8_17_Hashtable_traitsILb1ELb0ELb1EEEE15_M_bucket_indexERKNS8_16_Hash_node_valueIS6_Lb1EEE;	.scl	2;	.type	32;	.endef
	.seh_proc	_ZNKSt10_HashtableIjSt4pairIKjS0_IiPFi10CallParamsEEESaIS6_ENSt8__detail10_Select1stESt8equal_toIjE6HasherNS8_18_Mod_range_hashingENS8_20_Default_ranged_hashENS8_20_Prime_rehash_policyENS8_17_Hashtable_traitsILb1ELb0ELb1EEEE15_M_bucket_indexERKNS8_16_Hash_node_valueIS6_Lb1EEE
_ZNKSt10_HashtableIjSt4pairIKjS0_IiPFi10CallParamsEEESaIS6_ENSt8__detail10_Select1stESt8equal_toIjE6HasherNS8_18_Mod_range_hashingENS8_20_Default_ranged_hashENS8_20_Prime_rehash_policyENS8_17_Hashtable_traitsILb1ELb0ELb1EEEE15_M_bucket_indexERKNS8_16_Hash_node_valueIS6_Lb1EEE:
.LFB8099:
	push	rbp
	.seh_pushreg	rbp
	mov	rbp, rsp
	.seh_setframe	rbp, 0
	sub	rsp, 32
	.seh_stackalloc	32
	.seh_endprologue
	mov	QWORD PTR 16[rbp], rcx
	mov	QWORD PTR 24[rbp], rdx
	mov	rax, QWORD PTR 16[rbp]
	mov	rcx, QWORD PTR 8[rax]
	mov	rdx, QWORD PTR 24[rbp]
	mov	rax, QWORD PTR 16[rbp]
	mov	r8, rcx
	mov	rcx, rax
	call	_ZNKSt8__detail15_Hash_code_baseIjSt4pairIKjS1_IiPFi10CallParamsEEENS_10_Select1stE6HasherNS_18_Mod_range_hashingENS_20_Default_ranged_hashELb1EE15_M_bucket_indexERKNS_16_Hash_node_valueIS7_Lb1EEEy
	add	rsp, 32
	pop	rbp
	ret
	.seh_endproc
	.section	.text$_ZN9__gnu_cxx16__aligned_bufferISt4pairIKjS1_IiPFi10CallParamsEEEE6_M_ptrEv,"x"
	.linkonce discard
	.align 2
	.globl	_ZN9__gnu_cxx16__aligned_bufferISt4pairIKjS1_IiPFi10CallParamsEEEE6_M_ptrEv
	.def	_ZN9__gnu_cxx16__aligned_bufferISt4pairIKjS1_IiPFi10CallParamsEEEE6_M_ptrEv;	.scl	2;	.type	32;	.endef
	.seh_proc	_ZN9__gnu_cxx16__aligned_bufferISt4pairIKjS1_IiPFi10CallParamsEEEE6_M_ptrEv
_ZN9__gnu_cxx16__aligned_bufferISt4pairIKjS1_IiPFi10CallParamsEEEE6_M_ptrEv:
.LFB8100:
	push	rbp
	.seh_pushreg	rbp
	mov	rbp, rsp
	.seh_setframe	rbp, 0
	sub	rsp, 32
	.seh_stackalloc	32
	.seh_endprologue
	mov	QWORD PTR 16[rbp], rcx
	mov	rax, QWORD PTR 16[rbp]
	mov	rcx, rax
	call	_ZN9__gnu_cxx16__aligned_bufferISt4pairIKjS1_IiPFi10CallParamsEEEE7_M_addrEv
	add	rsp, 32
	pop	rbp
	ret
	.seh_endproc
	.section	.text$_ZNSt11_Tuple_implILy0EJOjEEC2IjEEOT_,"x"
	.linkonce discard
	.align 2
	.globl	_ZNSt11_Tuple_implILy0EJOjEEC2IjEEOT_
	.def	_ZNSt11_Tuple_implILy0EJOjEEC2IjEEOT_;	.scl	2;	.type	32;	.endef
	.seh_proc	_ZNSt11_Tuple_implILy0EJOjEEC2IjEEOT_
_ZNSt11_Tuple_implILy0EJOjEEC2IjEEOT_:
.LFB8102:
	push	rbp
	.seh_pushreg	rbp
	push	rbx
	.seh_pushreg	rbx
	sub	rsp, 40
	.seh_stackalloc	40
	lea	rbp, 32[rsp]
	.seh_setframe	rbp, 32
	.seh_endprologue
	mov	QWORD PTR 32[rbp], rcx
	mov	QWORD PTR 40[rbp], rdx
	mov	rbx, QWORD PTR 32[rbp]
	mov	rax, QWORD PTR 40[rbp]
	mov	rcx, rax
	call	_ZSt7forwardIjEOT_RNSt16remove_referenceIS0_E4typeE
	mov	rdx, rax
	mov	rcx, rbx
	call	_ZNSt10_Head_baseILy0EOjLb0EEC2IjEEOT_
	nop
	add	rsp, 40
	pop	rbx
	pop	rbp
	ret
	.seh_endproc
	.section	.text$_ZNSt8__detail16_Hashtable_allocISaINS_10_Hash_nodeISt4pairIKjS2_IiPFi10CallParamsEEELb1EEEEE17_M_node_allocatorEv,"x"
	.linkonce discard
	.align 2
	.globl	_ZNSt8__detail16_Hashtable_allocISaINS_10_Hash_nodeISt4pairIKjS2_IiPFi10CallParamsEEELb1EEEEE17_M_node_allocatorEv
	.def	_ZNSt8__detail16_Hashtable_allocISaINS_10_Hash_nodeISt4pairIKjS2_IiPFi10CallParamsEEELb1EEEEE17_M_node_allocatorEv;	.scl	2;	.type	32;	.endef
	.seh_proc	_ZNSt8__detail16_Hashtable_allocISaINS_10_Hash_nodeISt4pairIKjS2_IiPFi10CallParamsEEELb1EEEEE17_M_node_allocatorEv
_ZNSt8__detail16_Hashtable_allocISaINS_10_Hash_nodeISt4pairIKjS2_IiPFi10CallParamsEEELb1EEEEE17_M_node_allocatorEv:
.LFB8104:
	push	rbp
	.seh_pushreg	rbp
	mov	rbp, rsp
	.seh_setframe	rbp, 0
	sub	rsp, 32
	.seh_stackalloc	32
	.seh_endprologue
	mov	QWORD PTR 16[rbp], rcx
	mov	rax, QWORD PTR 16[rbp]
	mov	rcx, rax
	call	_ZNSt8__detail21_Hashtable_ebo_helperILi0ESaINS_10_Hash_nodeISt4pairIKjS2_IiPFi10CallParamsEEELb1EEEELb1EE6_M_getEv
	add	rsp, 32
	pop	rbp
	ret
	.seh_endproc
	.section	.text$_ZNSt16allocator_traitsISaINSt8__detail10_Hash_nodeISt4pairIKjS2_IiPFi10CallParamsEEELb1EEEEE8allocateERSA_y,"x"
	.linkonce discard
	.globl	_ZNSt16allocator_traitsISaINSt8__detail10_Hash_nodeISt4pairIKjS2_IiPFi10CallParamsEEELb1EEEEE8allocateERSA_y
	.def	_ZNSt16allocator_traitsISaINSt8__detail10_Hash_nodeISt4pairIKjS2_IiPFi10CallParamsEEELb1EEEEE8allocateERSA_y;	.scl	2;	.type	32;	.endef
	.seh_proc	_ZNSt16allocator_traitsISaINSt8__detail10_Hash_nodeISt4pairIKjS2_IiPFi10CallParamsEEELb1EEEEE8allocateERSA_y
_ZNSt16allocator_traitsISaINSt8__detail10_Hash_nodeISt4pairIKjS2_IiPFi10CallParamsEEELb1EEEEE8allocateERSA_y:
.LFB8105:
	push	rbp
	.seh_pushreg	rbp
	mov	rbp, rsp
	.seh_setframe	rbp, 0
	sub	rsp, 48
	.seh_stackalloc	48
	.seh_endprologue
	mov	QWORD PTR 16[rbp], rcx
	mov	QWORD PTR 24[rbp], rdx
	mov	rax, QWORD PTR 16[rbp]
	mov	QWORD PTR -8[rbp], rax
	mov	rax, QWORD PTR 24[rbp]
	mov	QWORD PTR -16[rbp], rax
	call	_ZSt23__is_constant_evaluatedv
	test	al, al
	je	.L302
	mov	rax, QWORD PTR -16[rbp]
	mov	ecx, 0
	mov	edx, 40
	mul	rdx
	jno	.L303
	mov	ecx, 1
.L303:
	mov	QWORD PTR -16[rbp], rax
	mov	rax, rcx
	and	eax, 1
	test	al, al
	je	.L305
	call	_ZSt28__throw_bad_array_new_lengthv
.L305:
	mov	rax, QWORD PTR -16[rbp]
	mov	rcx, rax
	call	_Znwy
	jmp	.L306
.L302:
	mov	rdx, QWORD PTR -16[rbp]
	mov	rax, QWORD PTR -8[rbp]
	mov	r8d, 0
	mov	rcx, rax
	call	_ZNSt15__new_allocatorINSt8__detail10_Hash_nodeISt4pairIKjS2_IiPFi10CallParamsEEELb1EEEE8allocateEyPKv
	nop
.L306:
	add	rsp, 48
	pop	rbp
	ret
	.seh_endproc
	.section	.text$_ZSt12__to_addressINSt8__detail10_Hash_nodeISt4pairIKjS2_IiPFi10CallParamsEEELb1EEEEPT_SB_,"x"
	.linkonce discard
	.globl	_ZSt12__to_addressINSt8__detail10_Hash_nodeISt4pairIKjS2_IiPFi10CallParamsEEELb1EEEEPT_SB_
	.def	_ZSt12__to_addressINSt8__detail10_Hash_nodeISt4pairIKjS2_IiPFi10CallParamsEEELb1EEEEPT_SB_;	.scl	2;	.type	32;	.endef
	.seh_proc	_ZSt12__to_addressINSt8__detail10_Hash_nodeISt4pairIKjS2_IiPFi10CallParamsEEELb1EEEEPT_SB_
_ZSt12__to_addressINSt8__detail10_Hash_nodeISt4pairIKjS2_IiPFi10CallParamsEEELb1EEEEPT_SB_:
.LFB8106:
	push	rbp
	.seh_pushreg	rbp
	mov	rbp, rsp
	.seh_setframe	rbp, 0
	.seh_endprologue
	mov	QWORD PTR 16[rbp], rcx
	mov	rax, QWORD PTR 16[rbp]
	pop	rbp
	ret
	.seh_endproc
	.section	.text$_ZNSt16allocator_traitsISaINSt8__detail10_Hash_nodeISt4pairIKjS2_IiPFi10CallParamsEEELb1EEEEE9constructIS8_JRKSt21piecewise_construct_tSt5tupleIJOjEESG_IJEEEEEvRSA_PT_DpOT0_,"x"
	.linkonce discard
	.globl	_ZNSt16allocator_traitsISaINSt8__detail10_Hash_nodeISt4pairIKjS2_IiPFi10CallParamsEEELb1EEEEE9constructIS8_JRKSt21piecewise_construct_tSt5tupleIJOjEESG_IJEEEEEvRSA_PT_DpOT0_
	.def	_ZNSt16allocator_traitsISaINSt8__detail10_Hash_nodeISt4pairIKjS2_IiPFi10CallParamsEEELb1EEEEE9constructIS8_JRKSt21piecewise_construct_tSt5tupleIJOjEESG_IJEEEEEvRSA_PT_DpOT0_;	.scl	2;	.type	32;	.endef
	.seh_proc	_ZNSt16allocator_traitsISaINSt8__detail10_Hash_nodeISt4pairIKjS2_IiPFi10CallParamsEEELb1EEEEE9constructIS8_JRKSt21piecewise_construct_tSt5tupleIJOjEESG_IJEEEEEvRSA_PT_DpOT0_
_ZNSt16allocator_traitsISaINSt8__detail10_Hash_nodeISt4pairIKjS2_IiPFi10CallParamsEEELb1EEEEE9constructIS8_JRKSt21piecewise_construct_tSt5tupleIJOjEESG_IJEEEEEvRSA_PT_DpOT0_:
.LFB8107:
	push	rbp
	.seh_pushreg	rbp
	push	rsi
	.seh_pushreg	rsi
	push	rbx
	.seh_pushreg	rbx
	sub	rsp, 32
	.seh_stackalloc	32
	lea	rbp, 32[rsp]
	.seh_setframe	rbp, 32
	.seh_endprologue
	mov	QWORD PTR 32[rbp], rcx
	mov	QWORD PTR 40[rbp], rdx
	mov	QWORD PTR 48[rbp], r8
	mov	QWORD PTR 56[rbp], r9
	mov	rax, QWORD PTR 64[rbp]
	mov	rcx, rax
	call	_ZSt7forwardISt5tupleIJEEEOT_RNSt16remove_referenceIS2_E4typeE
	mov	rsi, rax
	mov	rax, QWORD PTR 56[rbp]
	mov	rcx, rax
	call	_ZSt7forwardISt5tupleIJOjEEEOT_RNSt16remove_referenceIS3_E4typeE
	mov	rbx, rax
	mov	rax, QWORD PTR 48[rbp]
	mov	rcx, rax
	call	_ZSt7forwardIRKSt21piecewise_construct_tEOT_RNSt16remove_referenceIS3_E4typeE
	mov	rdx, rax
	mov	rax, QWORD PTR 40[rbp]
	mov	r9, rsi
	mov	r8, rbx
	mov	rcx, rax
	call	_ZSt12construct_atISt4pairIKjS0_IiPFi10CallParamsEEEJRKSt21piecewise_construct_tSt5tupleIJOjEESA_IJEEEEDTgsnwcvPvLi0E_T_pispcl7declvalIT0_EEEEPSF_DpOSG_
	nop
	add	rsp, 32
	pop	rbx
	pop	rsi
	pop	rbp
	ret
	.seh_endproc
	.section	.text$_ZNSt16allocator_traitsISaINSt8__detail10_Hash_nodeISt4pairIKjS2_IiPFi10CallParamsEEELb1EEEEE10deallocateERSA_PS9_y,"x"
	.linkonce discard
	.globl	_ZNSt16allocator_traitsISaINSt8__detail10_Hash_nodeISt4pairIKjS2_IiPFi10CallParamsEEELb1EEEEE10deallocateERSA_PS9_y
	.def	_ZNSt16allocator_traitsISaINSt8__detail10_Hash_nodeISt4pairIKjS2_IiPFi10CallParamsEEELb1EEEEE10deallocateERSA_PS9_y;	.scl	2;	.type	32;	.endef
	.seh_proc	_ZNSt16allocator_traitsISaINSt8__detail10_Hash_nodeISt4pairIKjS2_IiPFi10CallParamsEEELb1EEEEE10deallocateERSA_PS9_y
_ZNSt16allocator_traitsISaINSt8__detail10_Hash_nodeISt4pairIKjS2_IiPFi10CallParamsEEELb1EEEEE10deallocateERSA_PS9_y:
.LFB8108:
	push	rbp
	.seh_pushreg	rbp
	mov	rbp, rsp
	.seh_setframe	rbp, 0
	sub	rsp, 64
	.seh_stackalloc	64
	.seh_endprologue
	mov	QWORD PTR 16[rbp], rcx
	mov	QWORD PTR 24[rbp], rdx
	mov	QWORD PTR 32[rbp], r8
	mov	rax, QWORD PTR 16[rbp]
	mov	QWORD PTR -8[rbp], rax
	mov	rax, QWORD PTR 24[rbp]
	mov	QWORD PTR -16[rbp], rax
	mov	rax, QWORD PTR 32[rbp]
	mov	QWORD PTR -24[rbp], rax
	call	_ZSt23__is_constant_evaluatedv
	test	al, al
	je	.L312
	mov	rax, QWORD PTR -16[rbp]
	mov	rcx, rax
	call	_ZdlPv
	jmp	.L313
.L312:
	mov	rcx, QWORD PTR -24[rbp]
	mov	rdx, QWORD PTR -16[rbp]
	mov	rax, QWORD PTR -8[rbp]
	mov	r8, rcx
	mov	rcx, rax
	call	_ZNSt15__new_allocatorINSt8__detail10_Hash_nodeISt4pairIKjS2_IiPFi10CallParamsEEELb1EEEE10deallocateEPS9_y
	nop
.L313:
	nop
	add	rsp, 64
	pop	rbp
	ret
	.seh_endproc
	.section	.text$_ZNSt16allocator_traitsISaINSt8__detail10_Hash_nodeISt4pairIKjS2_IiPFi10CallParamsEEELb1EEEEE7destroyIS8_EEvRSA_PT_,"x"
	.linkonce discard
	.globl	_ZNSt16allocator_traitsISaINSt8__detail10_Hash_nodeISt4pairIKjS2_IiPFi10CallParamsEEELb1EEEEE7destroyIS8_EEvRSA_PT_
	.def	_ZNSt16allocator_traitsISaINSt8__detail10_Hash_nodeISt4pairIKjS2_IiPFi10CallParamsEEELb1EEEEE7destroyIS8_EEvRSA_PT_;	.scl	2;	.type	32;	.endef
	.seh_proc	_ZNSt16allocator_traitsISaINSt8__detail10_Hash_nodeISt4pairIKjS2_IiPFi10CallParamsEEELb1EEEEE7destroyIS8_EEvRSA_PT_
_ZNSt16allocator_traitsISaINSt8__detail10_Hash_nodeISt4pairIKjS2_IiPFi10CallParamsEEELb1EEEEE7destroyIS8_EEvRSA_PT_:
.LFB8109:
	push	rbp
	.seh_pushreg	rbp
	mov	rbp, rsp
	.seh_setframe	rbp, 0
	sub	rsp, 32
	.seh_stackalloc	32
	.seh_endprologue
	mov	QWORD PTR 16[rbp], rcx
	mov	QWORD PTR 24[rbp], rdx
	mov	rax, QWORD PTR 24[rbp]
	mov	rcx, rax
	call	_ZSt10destroy_atISt4pairIKjS0_IiPFi10CallParamsEEEEvPT_
	nop
	add	rsp, 32
	pop	rbp
	ret
	.seh_endproc
	.section	.text$_ZNSt8__detail16_Hashtable_allocISaINS_10_Hash_nodeISt4pairIKjS2_IiPFi10CallParamsEEELb1EEEEE22_M_deallocate_node_ptrEPS9_,"x"
	.linkonce discard
	.align 2
	.globl	_ZNSt8__detail16_Hashtable_allocISaINS_10_Hash_nodeISt4pairIKjS2_IiPFi10CallParamsEEELb1EEEEE22_M_deallocate_node_ptrEPS9_
	.def	_ZNSt8__detail16_Hashtable_allocISaINS_10_Hash_nodeISt4pairIKjS2_IiPFi10CallParamsEEELb1EEEEE22_M_deallocate_node_ptrEPS9_;	.scl	2;	.type	32;	.endef
	.seh_proc	_ZNSt8__detail16_Hashtable_allocISaINS_10_Hash_nodeISt4pairIKjS2_IiPFi10CallParamsEEELb1EEEEE22_M_deallocate_node_ptrEPS9_
_ZNSt8__detail16_Hashtable_allocISaINS_10_Hash_nodeISt4pairIKjS2_IiPFi10CallParamsEEELb1EEEEE22_M_deallocate_node_ptrEPS9_:
.LFB8110:
	push	rbp
	.seh_pushreg	rbp
	mov	rbp, rsp
	.seh_setframe	rbp, 0
	sub	rsp, 48
	.seh_stackalloc	48
	.seh_endprologue
	mov	QWORD PTR 16[rbp], rcx
	mov	QWORD PTR 24[rbp], rdx
	mov	rax, QWORD PTR 24[rbp]
	mov	rcx, rax
	call	_ZNSt19__ptr_traits_ptr_toIPNSt8__detail10_Hash_nodeISt4pairIKjS2_IiPFi10CallParamsEEELb1EEES9_Lb0EE10pointer_toERS9_
	mov	QWORD PTR -8[rbp], rax
	mov	rax, QWORD PTR 16[rbp]
	mov	rcx, rax
	call	_ZNSt8__detail16_Hashtable_allocISaINS_10_Hash_nodeISt4pairIKjS2_IiPFi10CallParamsEEELb1EEEEE17_M_node_allocatorEv
	mov	rcx, rax
	mov	rax, QWORD PTR -8[rbp]
	mov	r8d, 1
	mov	rdx, rax
	call	_ZNSt16allocator_traitsISaINSt8__detail10_Hash_nodeISt4pairIKjS2_IiPFi10CallParamsEEELb1EEEEE10deallocateERSA_PS9_y
	nop
	add	rsp, 48
	pop	rbp
	ret
	.seh_endproc
	.section	.text$_ZNSt10_HashtableIjSt4pairIKjS0_IiPFi10CallParamsEEESaIS6_ENSt8__detail10_Select1stESt8equal_toIjE6HasherNS8_18_Mod_range_hashingENS8_20_Default_ranged_hashENS8_20_Prime_rehash_policyENS8_17_Hashtable_traitsILb1ELb0ELb1EEEE13_M_rehash_auxEySt17integral_constantIbLb1EE,"x"
	.linkonce discard
	.align 2
	.globl	_ZNSt10_HashtableIjSt4pairIKjS0_IiPFi10CallParamsEEESaIS6_ENSt8__detail10_Select1stESt8equal_toIjE6HasherNS8_18_Mod_range_hashingENS8_20_Default_ranged_hashENS8_20_Prime_rehash_policyENS8_17_Hashtable_traitsILb1ELb0ELb1EEEE13_M_rehash_auxEySt17integral_constantIbLb1EE
	.def	_ZNSt10_HashtableIjSt4pairIKjS0_IiPFi10CallParamsEEESaIS6_ENSt8__detail10_Select1stESt8equal_toIjE6HasherNS8_18_Mod_range_hashingENS8_20_Default_ranged_hashENS8_20_Prime_rehash_policyENS8_17_Hashtable_traitsILb1ELb0ELb1EEEE13_M_rehash_auxEySt17integral_constantIbLb1EE;	.scl	2;	.type	32;	.endef
	.seh_proc	_ZNSt10_HashtableIjSt4pairIKjS0_IiPFi10CallParamsEEESaIS6_ENSt8__detail10_Select1stESt8equal_toIjE6HasherNS8_18_Mod_range_hashingENS8_20_Default_ranged_hashENS8_20_Prime_rehash_policyENS8_17_Hashtable_traitsILb1ELb0ELb1EEEE13_M_rehash_auxEySt17integral_constantIbLb1EE
_ZNSt10_HashtableIjSt4pairIKjS0_IiPFi10CallParamsEEESaIS6_ENSt8__detail10_Select1stESt8equal_toIjE6HasherNS8_18_Mod_range_hashingENS8_20_Default_ranged_hashENS8_20_Prime_rehash_policyENS8_17_Hashtable_traitsILb1ELb0ELb1EEEE13_M_rehash_auxEySt17integral_constantIbLb1EE:
.LFB8111:
	push	rbp
	.seh_pushreg	rbp
	mov	rbp, rsp
	.seh_setframe	rbp, 0
	sub	rsp, 80
	.seh_stackalloc	80
	.seh_endprologue
	mov	QWORD PTR 16[rbp], rcx
	mov	QWORD PTR 24[rbp], rdx
	mov	rdx, QWORD PTR 24[rbp]
	mov	rax, QWORD PTR 16[rbp]
	mov	rcx, rax
	call	_ZNSt10_HashtableIjSt4pairIKjS0_IiPFi10CallParamsEEESaIS6_ENSt8__detail10_Select1stESt8equal_toIjE6HasherNS8_18_Mod_range_hashingENS8_20_Default_ranged_hashENS8_20_Prime_rehash_policyENS8_17_Hashtable_traitsILb1ELb0ELb1EEEE19_M_allocate_bucketsEy
	mov	QWORD PTR -24[rbp], rax
	mov	rax, QWORD PTR 16[rbp]
	mov	rcx, rax
	call	_ZNKSt10_HashtableIjSt4pairIKjS0_IiPFi10CallParamsEEESaIS6_ENSt8__detail10_Select1stESt8equal_toIjE6HasherNS8_18_Mod_range_hashingENS8_20_Default_ranged_hashENS8_20_Prime_rehash_policyENS8_17_Hashtable_traitsILb1ELb0ELb1EEEE8_M_beginEv
	mov	QWORD PTR -8[rbp], rax
	mov	rax, QWORD PTR 16[rbp]
	mov	QWORD PTR 16[rax], 0
	mov	QWORD PTR -16[rbp], 0
	jmp	.L317
.L321:
	mov	rax, QWORD PTR -8[rbp]
	mov	rcx, rax
	call	_ZNKSt8__detail10_Hash_nodeISt4pairIKjS1_IiPFi10CallParamsEEELb1EE7_M_nextEv
	mov	QWORD PTR -32[rbp], rax
	mov	rax, QWORD PTR -8[rbp]
	lea	rdx, 8[rax]
	mov	rcx, QWORD PTR 24[rbp]
	mov	rax, QWORD PTR 16[rbp]
	mov	r8, rcx
	mov	rcx, rax
	call	_ZNKSt8__detail15_Hash_code_baseIjSt4pairIKjS1_IiPFi10CallParamsEEENS_10_Select1stE6HasherNS_18_Mod_range_hashingENS_20_Default_ranged_hashELb1EE15_M_bucket_indexERKNS_16_Hash_node_valueIS7_Lb1EEEy
	mov	QWORD PTR -40[rbp], rax
	mov	rax, QWORD PTR -40[rbp]
	lea	rdx, 0[0+rax*8]
	mov	rax, QWORD PTR -24[rbp]
	add	rax, rdx
	mov	rax, QWORD PTR [rax]
	test	rax, rax
	jne	.L318
	mov	rax, QWORD PTR 16[rbp]
	mov	rdx, QWORD PTR 16[rax]
	mov	rax, QWORD PTR -8[rbp]
	mov	QWORD PTR [rax], rdx
	mov	rax, QWORD PTR 16[rbp]
	mov	rdx, QWORD PTR -8[rbp]
	mov	QWORD PTR 16[rax], rdx
	mov	rax, QWORD PTR -40[rbp]
	lea	rdx, 0[0+rax*8]
	mov	rax, QWORD PTR -24[rbp]
	add	rax, rdx
	mov	rdx, QWORD PTR 16[rbp]
	add	rdx, 16
	mov	QWORD PTR [rax], rdx
	mov	rax, QWORD PTR -8[rbp]
	mov	rax, QWORD PTR [rax]
	test	rax, rax
	je	.L319
	mov	rax, QWORD PTR -16[rbp]
	lea	rdx, 0[0+rax*8]
	mov	rax, QWORD PTR -24[rbp]
	add	rdx, rax
	mov	rax, QWORD PTR -8[rbp]
	mov	QWORD PTR [rdx], rax
.L319:
	mov	rax, QWORD PTR -40[rbp]
	mov	QWORD PTR -16[rbp], rax
	jmp	.L320
.L318:
	mov	rax, QWORD PTR -40[rbp]
	lea	rdx, 0[0+rax*8]
	mov	rax, QWORD PTR -24[rbp]
	add	rax, rdx
	mov	rax, QWORD PTR [rax]
	mov	rdx, QWORD PTR [rax]
	mov	rax, QWORD PTR -8[rbp]
	mov	QWORD PTR [rax], rdx
	mov	rax, QWORD PTR -40[rbp]
	lea	rdx, 0[0+rax*8]
	mov	rax, QWORD PTR -24[rbp]
	add	rax, rdx
	mov	rax, QWORD PTR [rax]
	mov	rdx, QWORD PTR -8[rbp]
	mov	QWORD PTR [rax], rdx
.L320:
	mov	rax, QWORD PTR -32[rbp]
	mov	QWORD PTR -8[rbp], rax
.L317:
	cmp	QWORD PTR -8[rbp], 0
	jne	.L321
	mov	rax, QWORD PTR 16[rbp]
	mov	rcx, rax
	call	_ZNSt10_HashtableIjSt4pairIKjS0_IiPFi10CallParamsEEESaIS6_ENSt8__detail10_Select1stESt8equal_toIjE6HasherNS8_18_Mod_range_hashingENS8_20_Default_ranged_hashENS8_20_Prime_rehash_policyENS8_17_Hashtable_traitsILb1ELb0ELb1EEEE21_M_deallocate_bucketsEv
	mov	rax, QWORD PTR 16[rbp]
	mov	rdx, QWORD PTR 24[rbp]
	mov	QWORD PTR 8[rax], rdx
	mov	rax, QWORD PTR 16[rbp]
	mov	rdx, QWORD PTR -24[rbp]
	mov	QWORD PTR [rax], rdx
	nop
	add	rsp, 80
	pop	rbp
	ret
	.seh_endproc
	.section	.text$_ZNSt8__detail19_Node_iterator_baseISt4pairIKjS1_IiPFi10CallParamsEEELb1EEC2EPNS_10_Hash_nodeIS7_Lb1EEE,"x"
	.linkonce discard
	.align 2
	.globl	_ZNSt8__detail19_Node_iterator_baseISt4pairIKjS1_IiPFi10CallParamsEEELb1EEC2EPNS_10_Hash_nodeIS7_Lb1EEE
	.def	_ZNSt8__detail19_Node_iterator_baseISt4pairIKjS1_IiPFi10CallParamsEEELb1EEC2EPNS_10_Hash_nodeIS7_Lb1EEE;	.scl	2;	.type	32;	.endef
	.seh_proc	_ZNSt8__detail19_Node_iterator_baseISt4pairIKjS1_IiPFi10CallParamsEEELb1EEC2EPNS_10_Hash_nodeIS7_Lb1EEE
_ZNSt8__detail19_Node_iterator_baseISt4pairIKjS1_IiPFi10CallParamsEEELb1EEC2EPNS_10_Hash_nodeIS7_Lb1EEE:
.LFB8113:
	push	rbp
	.seh_pushreg	rbp
	mov	rbp, rsp
	.seh_setframe	rbp, 0
	.seh_endprologue
	mov	QWORD PTR 16[rbp], rcx
	mov	QWORD PTR 24[rbp], rdx
	mov	rax, QWORD PTR 16[rbp]
	mov	rdx, QWORD PTR 24[rbp]
	mov	QWORD PTR [rax], rdx
	nop
	pop	rbp
	ret
	.seh_endproc
	.section	.text$_ZNSt8__detail15_Hashtable_baseIjSt4pairIKjS1_IiPFi10CallParamsEEENS_10_Select1stESt8equal_toIjE6HasherNS_18_Mod_range_hashingENS_20_Default_ranged_hashENS_17_Hashtable_traitsILb1ELb0ELb1EEEE9_S_equalsEyRKNS_21_Hash_node_code_cacheILb1EEE,"x"
	.linkonce discard
	.globl	_ZNSt8__detail15_Hashtable_baseIjSt4pairIKjS1_IiPFi10CallParamsEEENS_10_Select1stESt8equal_toIjE6HasherNS_18_Mod_range_hashingENS_20_Default_ranged_hashENS_17_Hashtable_traitsILb1ELb0ELb1EEEE9_S_equalsEyRKNS_21_Hash_node_code_cacheILb1EEE
	.def	_ZNSt8__detail15_Hashtable_baseIjSt4pairIKjS1_IiPFi10CallParamsEEENS_10_Select1stESt8equal_toIjE6HasherNS_18_Mod_range_hashingENS_20_Default_ranged_hashENS_17_Hashtable_traitsILb1ELb0ELb1EEEE9_S_equalsEyRKNS_21_Hash_node_code_cacheILb1EEE;	.scl	2;	.type	32;	.endef
	.seh_proc	_ZNSt8__detail15_Hashtable_baseIjSt4pairIKjS1_IiPFi10CallParamsEEENS_10_Select1stESt8equal_toIjE6HasherNS_18_Mod_range_hashingENS_20_Default_ranged_hashENS_17_Hashtable_traitsILb1ELb0ELb1EEEE9_S_equalsEyRKNS_21_Hash_node_code_cacheILb1EEE
_ZNSt8__detail15_Hashtable_baseIjSt4pairIKjS1_IiPFi10CallParamsEEENS_10_Select1stESt8equal_toIjE6HasherNS_18_Mod_range_hashingENS_20_Default_ranged_hashENS_17_Hashtable_traitsILb1ELb0ELb1EEEE9_S_equalsEyRKNS_21_Hash_node_code_cacheILb1EEE:
.LFB8115:
	push	rbp
	.seh_pushreg	rbp
	mov	rbp, rsp
	.seh_setframe	rbp, 0
	.seh_endprologue
	mov	QWORD PTR 16[rbp], rcx
	mov	QWORD PTR 24[rbp], rdx
	mov	rax, QWORD PTR 24[rbp]
	mov	rax, QWORD PTR [rax]
	cmp	QWORD PTR 16[rbp], rax
	sete	al
	pop	rbp
	ret
	.seh_endproc
	.section	.text$_ZNKSt8__detail15_Hashtable_baseIjSt4pairIKjS1_IiPFi10CallParamsEEENS_10_Select1stESt8equal_toIjE6HasherNS_18_Mod_range_hashingENS_20_Default_ranged_hashENS_17_Hashtable_traitsILb1ELb0ELb1EEEE13_M_key_equalsERS2_RKNS_16_Hash_node_valueIS7_Lb1EEE,"x"
	.linkonce discard
	.align 2
	.globl	_ZNKSt8__detail15_Hashtable_baseIjSt4pairIKjS1_IiPFi10CallParamsEEENS_10_Select1stESt8equal_toIjE6HasherNS_18_Mod_range_hashingENS_20_Default_ranged_hashENS_17_Hashtable_traitsILb1ELb0ELb1EEEE13_M_key_equalsERS2_RKNS_16_Hash_node_valueIS7_Lb1EEE
	.def	_ZNKSt8__detail15_Hashtable_baseIjSt4pairIKjS1_IiPFi10CallParamsEEENS_10_Select1stESt8equal_toIjE6HasherNS_18_Mod_range_hashingENS_20_Default_ranged_hashENS_17_Hashtable_traitsILb1ELb0ELb1EEEE13_M_key_equalsERS2_RKNS_16_Hash_node_valueIS7_Lb1EEE;	.scl	2;	.type	32;	.endef
	.seh_proc	_ZNKSt8__detail15_Hashtable_baseIjSt4pairIKjS1_IiPFi10CallParamsEEENS_10_Select1stESt8equal_toIjE6HasherNS_18_Mod_range_hashingENS_20_Default_ranged_hashENS_17_Hashtable_traitsILb1ELb0ELb1EEEE13_M_key_equalsERS2_RKNS_16_Hash_node_valueIS7_Lb1EEE
_ZNKSt8__detail15_Hashtable_baseIjSt4pairIKjS1_IiPFi10CallParamsEEENS_10_Select1stESt8equal_toIjE6HasherNS_18_Mod_range_hashingENS_20_Default_ranged_hashENS_17_Hashtable_traitsILb1ELb0ELb1EEEE13_M_key_equalsERS2_RKNS_16_Hash_node_valueIS7_Lb1EEE:
.LFB8116:
	push	rbp
	.seh_pushreg	rbp
	push	rbx
	.seh_pushreg	rbx
	sub	rsp, 56
	.seh_stackalloc	56
	lea	rbp, 48[rsp]
	.seh_setframe	rbp, 48
	.seh_endprologue
	mov	QWORD PTR 32[rbp], rcx
	mov	QWORD PTR 40[rbp], rdx
	mov	QWORD PTR 48[rbp], r8
	mov	rax, QWORD PTR 32[rbp]
	mov	rcx, rax
	call	_ZNKSt8__detail15_Hashtable_baseIjSt4pairIKjS1_IiPFi10CallParamsEEENS_10_Select1stESt8equal_toIjE6HasherNS_18_Mod_range_hashingENS_20_Default_ranged_hashENS_17_Hashtable_traitsILb1ELb0ELb1EEEE5_M_eqEv
	mov	rbx, rax
	mov	rax, QWORD PTR 48[rbp]
	mov	rcx, rax
	call	_ZNKSt8__detail21_Hash_node_value_baseISt4pairIKjS1_IiPFi10CallParamsEEEE4_M_vEv
	mov	rdx, rax
	lea	rax, -1[rbp]
	mov	rcx, rax
	call	_ZNKSt8__detail10_Select1stclIRKSt4pairIKjS2_IiPFi10CallParamsEEEEEONS0_10__1st_typeIT_E4typeEOSC_
	mov	rdx, rax
	mov	rax, QWORD PTR 40[rbp]
	mov	r8, rdx
	mov	rdx, rax
	mov	rcx, rbx
	call	_ZNKSt8equal_toIjEclERKjS2_
	add	rsp, 56
	pop	rbx
	pop	rbp
	ret
	.seh_endproc
	.section	.text$_ZNKSt8__detail15_Hash_code_baseIjSt4pairIKjS1_IiPFi10CallParamsEEENS_10_Select1stE6HasherNS_18_Mod_range_hashingENS_20_Default_ranged_hashELb1EE15_M_bucket_indexERKNS_16_Hash_node_valueIS7_Lb1EEEy,"x"
	.linkonce discard
	.align 2
	.globl	_ZNKSt8__detail15_Hash_code_baseIjSt4pairIKjS1_IiPFi10CallParamsEEENS_10_Select1stE6HasherNS_18_Mod_range_hashingENS_20_Default_ranged_hashELb1EE15_M_bucket_indexERKNS_16_Hash_node_valueIS7_Lb1EEEy
	.def	_ZNKSt8__detail15_Hash_code_baseIjSt4pairIKjS1_IiPFi10CallParamsEEENS_10_Select1stE6HasherNS_18_Mod_range_hashingENS_20_Default_ranged_hashELb1EE15_M_bucket_indexERKNS_16_Hash_node_valueIS7_Lb1EEEy;	.scl	2;	.type	32;	.endef
	.seh_proc	_ZNKSt8__detail15_Hash_code_baseIjSt4pairIKjS1_IiPFi10CallParamsEEENS_10_Select1stE6HasherNS_18_Mod_range_hashingENS_20_Default_ranged_hashELb1EE15_M_bucket_indexERKNS_16_Hash_node_valueIS7_Lb1EEEy
_ZNKSt8__detail15_Hash_code_baseIjSt4pairIKjS1_IiPFi10CallParamsEEENS_10_Select1stE6HasherNS_18_Mod_range_hashingENS_20_Default_ranged_hashELb1EE15_M_bucket_indexERKNS_16_Hash_node_valueIS7_Lb1EEEy:
.LFB8117:
	push	rbp
	.seh_pushreg	rbp
	mov	rbp, rsp
	.seh_setframe	rbp, 0
	sub	rsp, 48
	.seh_stackalloc	48
	.seh_endprologue
	mov	QWORD PTR 16[rbp], rcx
	mov	QWORD PTR 24[rbp], rdx
	mov	QWORD PTR 32[rbp], r8
	mov	rax, QWORD PTR 24[rbp]
	mov	rdx, QWORD PTR 24[rax]
	mov	rcx, QWORD PTR 32[rbp]
	lea	rax, -1[rbp]
	mov	r8, rcx
	mov	rcx, rax
	call	_ZNKSt8__detail18_Mod_range_hashingclEyy
	add	rsp, 48
	pop	rbp
	ret
	.seh_endproc
	.section	.text$_ZN9__gnu_cxx16__aligned_bufferISt4pairIKjS1_IiPFi10CallParamsEEEE7_M_addrEv,"x"
	.linkonce discard
	.align 2
	.globl	_ZN9__gnu_cxx16__aligned_bufferISt4pairIKjS1_IiPFi10CallParamsEEEE7_M_addrEv
	.def	_ZN9__gnu_cxx16__aligned_bufferISt4pairIKjS1_IiPFi10CallParamsEEEE7_M_addrEv;	.scl	2;	.type	32;	.endef
	.seh_proc	_ZN9__gnu_cxx16__aligned_bufferISt4pairIKjS1_IiPFi10CallParamsEEEE7_M_addrEv
_ZN9__gnu_cxx16__aligned_bufferISt4pairIKjS1_IiPFi10CallParamsEEEE7_M_addrEv:
.LFB8118:
	push	rbp
	.seh_pushreg	rbp
	mov	rbp, rsp
	.seh_setframe	rbp, 0
	.seh_endprologue
	mov	QWORD PTR 16[rbp], rcx
	mov	rax, QWORD PTR 16[rbp]
	pop	rbp
	ret
	.seh_endproc
	.section	.text$_ZNSt10_Head_baseILy0EOjLb0EEC2IjEEOT_,"x"
	.linkonce discard
	.align 2
	.globl	_ZNSt10_Head_baseILy0EOjLb0EEC2IjEEOT_
	.def	_ZNSt10_Head_baseILy0EOjLb0EEC2IjEEOT_;	.scl	2;	.type	32;	.endef
	.seh_proc	_ZNSt10_Head_baseILy0EOjLb0EEC2IjEEOT_
_ZNSt10_Head_baseILy0EOjLb0EEC2IjEEOT_:
.LFB8120:
	push	rbp
	.seh_pushreg	rbp
	mov	rbp, rsp
	.seh_setframe	rbp, 0
	sub	rsp, 32
	.seh_stackalloc	32
	.seh_endprologue
	mov	QWORD PTR 16[rbp], rcx
	mov	QWORD PTR 24[rbp], rdx
	mov	rax, QWORD PTR 24[rbp]
	mov	rcx, rax
	call	_ZSt7forwardIjEOT_RNSt16remove_referenceIS0_E4typeE
	mov	rdx, QWORD PTR 16[rbp]
	mov	QWORD PTR [rdx], rax
	nop
	add	rsp, 32
	pop	rbp
	ret
	.seh_endproc
	.section	.text$_ZNSt8__detail21_Hashtable_ebo_helperILi0ESaINS_10_Hash_nodeISt4pairIKjS2_IiPFi10CallParamsEEELb1EEEELb1EE6_M_getEv,"x"
	.linkonce discard
	.align 2
	.globl	_ZNSt8__detail21_Hashtable_ebo_helperILi0ESaINS_10_Hash_nodeISt4pairIKjS2_IiPFi10CallParamsEEELb1EEEELb1EE6_M_getEv
	.def	_ZNSt8__detail21_Hashtable_ebo_helperILi0ESaINS_10_Hash_nodeISt4pairIKjS2_IiPFi10CallParamsEEELb1EEEELb1EE6_M_getEv;	.scl	2;	.type	32;	.endef
	.seh_proc	_ZNSt8__detail21_Hashtable_ebo_helperILi0ESaINS_10_Hash_nodeISt4pairIKjS2_IiPFi10CallParamsEEELb1EEEELb1EE6_M_getEv
_ZNSt8__detail21_Hashtable_ebo_helperILi0ESaINS_10_Hash_nodeISt4pairIKjS2_IiPFi10CallParamsEEELb1EEEELb1EE6_M_getEv:
.LFB8122:
	push	rbp
	.seh_pushreg	rbp
	mov	rbp, rsp
	.seh_setframe	rbp, 0
	.seh_endprologue
	mov	QWORD PTR 16[rbp], rcx
	mov	rax, QWORD PTR 16[rbp]
	pop	rbp
	ret
	.seh_endproc
	.section	.text$_ZNSt5tupleIJOjEEC1EOS1_,"x"
	.linkonce discard
	.align 2
	.globl	_ZNSt5tupleIJOjEEC1EOS1_
	.def	_ZNSt5tupleIJOjEEC1EOS1_;	.scl	2;	.type	32;	.endef
	.seh_proc	_ZNSt5tupleIJOjEEC1EOS1_
_ZNSt5tupleIJOjEEC1EOS1_:
.LFB8127:
	push	rbp
	.seh_pushreg	rbp
	mov	rbp, rsp
	.seh_setframe	rbp, 0
	sub	rsp, 32
	.seh_stackalloc	32
	.seh_endprologue
	mov	QWORD PTR 16[rbp], rcx
	mov	QWORD PTR 24[rbp], rdx
	mov	rax, QWORD PTR 16[rbp]
	mov	rdx, QWORD PTR 24[rbp]
	mov	rcx, rax
	call	_ZNSt11_Tuple_implILy0EJOjEEC2EOS1_
	nop
	add	rsp, 32
	pop	rbp
	ret
	.seh_endproc
	.section	.text$_ZSt12construct_atISt4pairIKjS0_IiPFi10CallParamsEEEJRKSt21piecewise_construct_tSt5tupleIJOjEESA_IJEEEEDTgsnwcvPvLi0E_T_pispcl7declvalIT0_EEEEPSF_DpOSG_,"x"
	.linkonce discard
	.globl	_ZSt12construct_atISt4pairIKjS0_IiPFi10CallParamsEEEJRKSt21piecewise_construct_tSt5tupleIJOjEESA_IJEEEEDTgsnwcvPvLi0E_T_pispcl7declvalIT0_EEEEPSF_DpOSG_
	.def	_ZSt12construct_atISt4pairIKjS0_IiPFi10CallParamsEEEJRKSt21piecewise_construct_tSt5tupleIJOjEESA_IJEEEEDTgsnwcvPvLi0E_T_pispcl7declvalIT0_EEEEPSF_DpOSG_;	.scl	2;	.type	32;	.endef
	.seh_proc	_ZSt12construct_atISt4pairIKjS0_IiPFi10CallParamsEEEJRKSt21piecewise_construct_tSt5tupleIJOjEESA_IJEEEEDTgsnwcvPvLi0E_T_pispcl7declvalIT0_EEEEPSF_DpOSG_
_ZSt12construct_atISt4pairIKjS0_IiPFi10CallParamsEEEJRKSt21piecewise_construct_tSt5tupleIJOjEESA_IJEEEEDTgsnwcvPvLi0E_T_pispcl7declvalIT0_EEEEPSF_DpOSG_:
.LFB8124:
	push	rbp
	.seh_pushreg	rbp
	push	r13
	.seh_pushreg	r13
	push	r12
	.seh_pushreg	r12
	push	rdi
	.seh_pushreg	rdi
	push	rsi
	.seh_pushreg	rsi
	push	rbx
	.seh_pushreg	rbx
	sub	rsp, 56
	.seh_stackalloc	56
	lea	rbp, 48[rsp]
	.seh_setframe	rbp, 48
	.seh_endprologue
	mov	QWORD PTR 64[rbp], rcx
	mov	QWORD PTR 72[rbp], rdx
	mov	QWORD PTR 80[rbp], r8
	mov	QWORD PTR 88[rbp], r9
	mov	rsi, QWORD PTR 64[rbp]
	mov	rdx, rsi
	mov	ecx, 24
	call	_ZnwyPv
	mov	rbx, rax
	mov	r12d, 1
	mov	rax, QWORD PTR 88[rbp]
	mov	rcx, rax
	call	_ZSt7forwardISt5tupleIJEEEOT_RNSt16remove_referenceIS2_E4typeE
	mov	rax, QWORD PTR 80[rbp]
	mov	rcx, rax
	call	_ZSt7forwardISt5tupleIJOjEEEOT_RNSt16remove_referenceIS3_E4typeE
	mov	rdx, rax
	lea	rax, -8[rbp]
	mov	rcx, rax
	call	_ZNSt5tupleIJOjEEC1EOS1_
	mov	rax, QWORD PTR 72[rbp]
	mov	rcx, rax
	call	_ZSt7forwardIRKSt21piecewise_construct_tEOT_RNSt16remove_referenceIS3_E4typeE
	lea	rax, -8[rbp]
	mov	r9d, r13d
	mov	r8, rax
	mov	edx, edi
	mov	rcx, rbx
.LEHB10:
	call	_ZNSt4pairIKjS_IiPFi10CallParamsEEEC1IJOjEJEEESt21piecewise_construct_tSt5tupleIJDpT_EES9_IJDpT0_EE
.LEHE10:
	mov	rax, rbx
	jmp	.L340
.L339:
	mov	rdi, rax
	test	r12b, r12b
	je	.L338
	mov	rdx, rsi
	mov	rcx, rbx
	call	_ZdlPvS_
.L338:
	mov	rax, rdi
	mov	rcx, rax
.LEHB11:
	call	_Unwind_Resume
.LEHE11:
.L340:
	add	rsp, 56
	pop	rbx
	pop	rsi
	pop	rdi
	pop	r12
	pop	r13
	pop	rbp
	ret
	.seh_handler	__gxx_personality_seh0, @unwind, @except
	.seh_handlerdata
.LLSDA8124:
	.byte	0xff
	.byte	0xff
	.byte	0x1
	.uleb128 .LLSDACSE8124-.LLSDACSB8124
.LLSDACSB8124:
	.uleb128 .LEHB10-.LFB8124
	.uleb128 .LEHE10-.LEHB10
	.uleb128 .L339-.LFB8124
	.uleb128 0
	.uleb128 .LEHB11-.LFB8124
	.uleb128 .LEHE11-.LEHB11
	.uleb128 0
	.uleb128 0
.LLSDACSE8124:
	.section	.text$_ZSt12construct_atISt4pairIKjS0_IiPFi10CallParamsEEEJRKSt21piecewise_construct_tSt5tupleIJOjEESA_IJEEEEDTgsnwcvPvLi0E_T_pispcl7declvalIT0_EEEEPSF_DpOSG_,"x"
	.linkonce discard
	.seh_endproc
	.section	.text$_ZSt10destroy_atISt4pairIKjS0_IiPFi10CallParamsEEEEvPT_,"x"
	.linkonce discard
	.globl	_ZSt10destroy_atISt4pairIKjS0_IiPFi10CallParamsEEEEvPT_
	.def	_ZSt10destroy_atISt4pairIKjS0_IiPFi10CallParamsEEEEvPT_;	.scl	2;	.type	32;	.endef
	.seh_proc	_ZSt10destroy_atISt4pairIKjS0_IiPFi10CallParamsEEEEvPT_
_ZSt10destroy_atISt4pairIKjS0_IiPFi10CallParamsEEEEvPT_:
.LFB8129:
	push	rbp
	.seh_pushreg	rbp
	mov	rbp, rsp
	.seh_setframe	rbp, 0
	.seh_endprologue
	mov	QWORD PTR 16[rbp], rcx
	nop
	pop	rbp
	ret
	.seh_endproc
	.section	.text$_ZNSt19__ptr_traits_ptr_toIPNSt8__detail10_Hash_nodeISt4pairIKjS2_IiPFi10CallParamsEEELb1EEES9_Lb0EE10pointer_toERS9_,"x"
	.linkonce discard
	.globl	_ZNSt19__ptr_traits_ptr_toIPNSt8__detail10_Hash_nodeISt4pairIKjS2_IiPFi10CallParamsEEELb1EEES9_Lb0EE10pointer_toERS9_
	.def	_ZNSt19__ptr_traits_ptr_toIPNSt8__detail10_Hash_nodeISt4pairIKjS2_IiPFi10CallParamsEEELb1EEES9_Lb0EE10pointer_toERS9_;	.scl	2;	.type	32;	.endef
	.seh_proc	_ZNSt19__ptr_traits_ptr_toIPNSt8__detail10_Hash_nodeISt4pairIKjS2_IiPFi10CallParamsEEELb1EEES9_Lb0EE10pointer_toERS9_
_ZNSt19__ptr_traits_ptr_toIPNSt8__detail10_Hash_nodeISt4pairIKjS2_IiPFi10CallParamsEEELb1EEES9_Lb0EE10pointer_toERS9_:
.LFB8130:
	push	rbp
	.seh_pushreg	rbp
	mov	rbp, rsp
	.seh_setframe	rbp, 0
	sub	rsp, 32
	.seh_stackalloc	32
	.seh_endprologue
	mov	QWORD PTR 16[rbp], rcx
	mov	rax, QWORD PTR 16[rbp]
	mov	rcx, rax
	call	_ZSt9addressofINSt8__detail10_Hash_nodeISt4pairIKjS2_IiPFi10CallParamsEEELb1EEEEPT_RSA_
	add	rsp, 32
	pop	rbp
	ret
	.seh_endproc
	.section	.text$_ZNSt10_HashtableIjSt4pairIKjS0_IiPFi10CallParamsEEESaIS6_ENSt8__detail10_Select1stESt8equal_toIjE6HasherNS8_18_Mod_range_hashingENS8_20_Default_ranged_hashENS8_20_Prime_rehash_policyENS8_17_Hashtable_traitsILb1ELb0ELb1EEEE19_M_allocate_bucketsEy,"x"
	.linkonce discard
	.align 2
	.globl	_ZNSt10_HashtableIjSt4pairIKjS0_IiPFi10CallParamsEEESaIS6_ENSt8__detail10_Select1stESt8equal_toIjE6HasherNS8_18_Mod_range_hashingENS8_20_Default_ranged_hashENS8_20_Prime_rehash_policyENS8_17_Hashtable_traitsILb1ELb0ELb1EEEE19_M_allocate_bucketsEy
	.def	_ZNSt10_HashtableIjSt4pairIKjS0_IiPFi10CallParamsEEESaIS6_ENSt8__detail10_Select1stESt8equal_toIjE6HasherNS8_18_Mod_range_hashingENS8_20_Default_ranged_hashENS8_20_Prime_rehash_policyENS8_17_Hashtable_traitsILb1ELb0ELb1EEEE19_M_allocate_bucketsEy;	.scl	2;	.type	32;	.endef
	.seh_proc	_ZNSt10_HashtableIjSt4pairIKjS0_IiPFi10CallParamsEEESaIS6_ENSt8__detail10_Select1stESt8equal_toIjE6HasherNS8_18_Mod_range_hashingENS8_20_Default_ranged_hashENS8_20_Prime_rehash_policyENS8_17_Hashtable_traitsILb1ELb0ELb1EEEE19_M_allocate_bucketsEy
_ZNSt10_HashtableIjSt4pairIKjS0_IiPFi10CallParamsEEESaIS6_ENSt8__detail10_Select1stESt8equal_toIjE6HasherNS8_18_Mod_range_hashingENS8_20_Default_ranged_hashENS8_20_Prime_rehash_policyENS8_17_Hashtable_traitsILb1ELb0ELb1EEEE19_M_allocate_bucketsEy:
.LFB8131:
	push	rbp
	.seh_pushreg	rbp
	mov	rbp, rsp
	.seh_setframe	rbp, 0
	sub	rsp, 32
	.seh_stackalloc	32
	.seh_endprologue
	mov	QWORD PTR 16[rbp], rcx
	mov	QWORD PTR 24[rbp], rdx
	cmp	QWORD PTR 24[rbp], 1
	sete	al
	movzx	eax, al
	test	eax, eax
	je	.L345
	mov	rax, QWORD PTR 16[rbp]
	mov	QWORD PTR 48[rax], 0
	mov	rax, QWORD PTR 16[rbp]
	add	rax, 48
	jmp	.L346
.L345:
	mov	rdx, QWORD PTR 24[rbp]
	mov	rax, QWORD PTR 16[rbp]
	mov	rcx, rax
	call	_ZNSt8__detail16_Hashtable_allocISaINS_10_Hash_nodeISt4pairIKjS2_IiPFi10CallParamsEEELb1EEEEE19_M_allocate_bucketsEy
	nop
.L346:
	add	rsp, 32
	pop	rbp
	ret
	.seh_endproc
	.section	.text$_ZNKSt10_HashtableIjSt4pairIKjS0_IiPFi10CallParamsEEESaIS6_ENSt8__detail10_Select1stESt8equal_toIjE6HasherNS8_18_Mod_range_hashingENS8_20_Default_ranged_hashENS8_20_Prime_rehash_policyENS8_17_Hashtable_traitsILb1ELb0ELb1EEEE8_M_beginEv,"x"
	.linkonce discard
	.align 2
	.globl	_ZNKSt10_HashtableIjSt4pairIKjS0_IiPFi10CallParamsEEESaIS6_ENSt8__detail10_Select1stESt8equal_toIjE6HasherNS8_18_Mod_range_hashingENS8_20_Default_ranged_hashENS8_20_Prime_rehash_policyENS8_17_Hashtable_traitsILb1ELb0ELb1EEEE8_M_beginEv
	.def	_ZNKSt10_HashtableIjSt4pairIKjS0_IiPFi10CallParamsEEESaIS6_ENSt8__detail10_Select1stESt8equal_toIjE6HasherNS8_18_Mod_range_hashingENS8_20_Default_ranged_hashENS8_20_Prime_rehash_policyENS8_17_Hashtable_traitsILb1ELb0ELb1EEEE8_M_beginEv;	.scl	2;	.type	32;	.endef
	.seh_proc	_ZNKSt10_HashtableIjSt4pairIKjS0_IiPFi10CallParamsEEESaIS6_ENSt8__detail10_Select1stESt8equal_toIjE6HasherNS8_18_Mod_range_hashingENS8_20_Default_ranged_hashENS8_20_Prime_rehash_policyENS8_17_Hashtable_traitsILb1ELb0ELb1EEEE8_M_beginEv
_ZNKSt10_HashtableIjSt4pairIKjS0_IiPFi10CallParamsEEESaIS6_ENSt8__detail10_Select1stESt8equal_toIjE6HasherNS8_18_Mod_range_hashingENS8_20_Default_ranged_hashENS8_20_Prime_rehash_policyENS8_17_Hashtable_traitsILb1ELb0ELb1EEEE8_M_beginEv:
.LFB8132:
	push	rbp
	.seh_pushreg	rbp
	mov	rbp, rsp
	.seh_setframe	rbp, 0
	.seh_endprologue
	mov	QWORD PTR 16[rbp], rcx
	mov	rax, QWORD PTR 16[rbp]
	mov	rax, QWORD PTR 16[rax]
	pop	rbp
	ret
	.seh_endproc
	.section	.text$_ZNSt10_HashtableIjSt4pairIKjS0_IiPFi10CallParamsEEESaIS6_ENSt8__detail10_Select1stESt8equal_toIjE6HasherNS8_18_Mod_range_hashingENS8_20_Default_ranged_hashENS8_20_Prime_rehash_policyENS8_17_Hashtable_traitsILb1ELb0ELb1EEEE21_M_deallocate_bucketsEv,"x"
	.linkonce discard
	.align 2
	.globl	_ZNSt10_HashtableIjSt4pairIKjS0_IiPFi10CallParamsEEESaIS6_ENSt8__detail10_Select1stESt8equal_toIjE6HasherNS8_18_Mod_range_hashingENS8_20_Default_ranged_hashENS8_20_Prime_rehash_policyENS8_17_Hashtable_traitsILb1ELb0ELb1EEEE21_M_deallocate_bucketsEv
	.def	_ZNSt10_HashtableIjSt4pairIKjS0_IiPFi10CallParamsEEESaIS6_ENSt8__detail10_Select1stESt8equal_toIjE6HasherNS8_18_Mod_range_hashingENS8_20_Default_ranged_hashENS8_20_Prime_rehash_policyENS8_17_Hashtable_traitsILb1ELb0ELb1EEEE21_M_deallocate_bucketsEv;	.scl	2;	.type	32;	.endef
	.seh_proc	_ZNSt10_HashtableIjSt4pairIKjS0_IiPFi10CallParamsEEESaIS6_ENSt8__detail10_Select1stESt8equal_toIjE6HasherNS8_18_Mod_range_hashingENS8_20_Default_ranged_hashENS8_20_Prime_rehash_policyENS8_17_Hashtable_traitsILb1ELb0ELb1EEEE21_M_deallocate_bucketsEv
_ZNSt10_HashtableIjSt4pairIKjS0_IiPFi10CallParamsEEESaIS6_ENSt8__detail10_Select1stESt8equal_toIjE6HasherNS8_18_Mod_range_hashingENS8_20_Default_ranged_hashENS8_20_Prime_rehash_policyENS8_17_Hashtable_traitsILb1ELb0ELb1EEEE21_M_deallocate_bucketsEv:
.LFB8133:
	push	rbp
	.seh_pushreg	rbp
	mov	rbp, rsp
	.seh_setframe	rbp, 0
	sub	rsp, 32
	.seh_stackalloc	32
	.seh_endprologue
	mov	QWORD PTR 16[rbp], rcx
	mov	rax, QWORD PTR 16[rbp]
	mov	rcx, QWORD PTR 8[rax]
	mov	rax, QWORD PTR 16[rbp]
	mov	rdx, QWORD PTR [rax]
	mov	rax, QWORD PTR 16[rbp]
	mov	r8, rcx
	mov	rcx, rax
	call	_ZNSt10_HashtableIjSt4pairIKjS0_IiPFi10CallParamsEEESaIS6_ENSt8__detail10_Select1stESt8equal_toIjE6HasherNS8_18_Mod_range_hashingENS8_20_Default_ranged_hashENS8_20_Prime_rehash_policyENS8_17_Hashtable_traitsILb1ELb0ELb1EEEE21_M_deallocate_bucketsEPPNS8_15_Hash_node_baseEy
	nop
	add	rsp, 32
	pop	rbp
	ret
	.seh_endproc
	.section	.text$_ZNKSt8__detail15_Hashtable_baseIjSt4pairIKjS1_IiPFi10CallParamsEEENS_10_Select1stESt8equal_toIjE6HasherNS_18_Mod_range_hashingENS_20_Default_ranged_hashENS_17_Hashtable_traitsILb1ELb0ELb1EEEE5_M_eqEv,"x"
	.linkonce discard
	.align 2
	.globl	_ZNKSt8__detail15_Hashtable_baseIjSt4pairIKjS1_IiPFi10CallParamsEEENS_10_Select1stESt8equal_toIjE6HasherNS_18_Mod_range_hashingENS_20_Default_ranged_hashENS_17_Hashtable_traitsILb1ELb0ELb1EEEE5_M_eqEv
	.def	_ZNKSt8__detail15_Hashtable_baseIjSt4pairIKjS1_IiPFi10CallParamsEEENS_10_Select1stESt8equal_toIjE6HasherNS_18_Mod_range_hashingENS_20_Default_ranged_hashENS_17_Hashtable_traitsILb1ELb0ELb1EEEE5_M_eqEv;	.scl	2;	.type	32;	.endef
	.seh_proc	_ZNKSt8__detail15_Hashtable_baseIjSt4pairIKjS1_IiPFi10CallParamsEEENS_10_Select1stESt8equal_toIjE6HasherNS_18_Mod_range_hashingENS_20_Default_ranged_hashENS_17_Hashtable_traitsILb1ELb0ELb1EEEE5_M_eqEv
_ZNKSt8__detail15_Hashtable_baseIjSt4pairIKjS1_IiPFi10CallParamsEEENS_10_Select1stESt8equal_toIjE6HasherNS_18_Mod_range_hashingENS_20_Default_ranged_hashENS_17_Hashtable_traitsILb1ELb0ELb1EEEE5_M_eqEv:
.LFB8134:
	push	rbp
	.seh_pushreg	rbp
	mov	rbp, rsp
	.seh_setframe	rbp, 0
	sub	rsp, 32
	.seh_stackalloc	32
	.seh_endprologue
	mov	QWORD PTR 16[rbp], rcx
	mov	rax, QWORD PTR 16[rbp]
	mov	rcx, rax
	call	_ZNKSt8__detail21_Hashtable_ebo_helperILi0ESt8equal_toIjELb1EE7_M_cgetEv
	add	rsp, 32
	pop	rbp
	ret
	.seh_endproc
	.section	.text$_ZNKSt8__detail21_Hash_node_value_baseISt4pairIKjS1_IiPFi10CallParamsEEEE4_M_vEv,"x"
	.linkonce discard
	.align 2
	.globl	_ZNKSt8__detail21_Hash_node_value_baseISt4pairIKjS1_IiPFi10CallParamsEEEE4_M_vEv
	.def	_ZNKSt8__detail21_Hash_node_value_baseISt4pairIKjS1_IiPFi10CallParamsEEEE4_M_vEv;	.scl	2;	.type	32;	.endef
	.seh_proc	_ZNKSt8__detail21_Hash_node_value_baseISt4pairIKjS1_IiPFi10CallParamsEEEE4_M_vEv
_ZNKSt8__detail21_Hash_node_value_baseISt4pairIKjS1_IiPFi10CallParamsEEEE4_M_vEv:
.LFB8135:
	push	rbp
	.seh_pushreg	rbp
	mov	rbp, rsp
	.seh_setframe	rbp, 0
	sub	rsp, 32
	.seh_stackalloc	32
	.seh_endprologue
	mov	QWORD PTR 16[rbp], rcx
	mov	rax, QWORD PTR 16[rbp]
	mov	rcx, rax
	call	_ZNKSt8__detail21_Hash_node_value_baseISt4pairIKjS1_IiPFi10CallParamsEEEE9_M_valptrEv
	add	rsp, 32
	pop	rbp
	ret
	.seh_endproc
	.section	.text$_ZNKSt8__detail10_Select1stclIRKSt4pairIKjS2_IiPFi10CallParamsEEEEEONS0_10__1st_typeIT_E4typeEOSC_,"x"
	.linkonce discard
	.align 2
	.globl	_ZNKSt8__detail10_Select1stclIRKSt4pairIKjS2_IiPFi10CallParamsEEEEEONS0_10__1st_typeIT_E4typeEOSC_
	.def	_ZNKSt8__detail10_Select1stclIRKSt4pairIKjS2_IiPFi10CallParamsEEEEEONS0_10__1st_typeIT_E4typeEOSC_;	.scl	2;	.type	32;	.endef
	.seh_proc	_ZNKSt8__detail10_Select1stclIRKSt4pairIKjS2_IiPFi10CallParamsEEEEEONS0_10__1st_typeIT_E4typeEOSC_
_ZNKSt8__detail10_Select1stclIRKSt4pairIKjS2_IiPFi10CallParamsEEEEEONS0_10__1st_typeIT_E4typeEOSC_:
.LFB8136:
	push	rbp
	.seh_pushreg	rbp
	mov	rbp, rsp
	.seh_setframe	rbp, 0
	sub	rsp, 32
	.seh_stackalloc	32
	.seh_endprologue
	mov	QWORD PTR 16[rbp], rcx
	mov	QWORD PTR 24[rbp], rdx
	mov	rax, QWORD PTR 24[rbp]
	mov	rcx, rax
	call	_ZSt7forwardIRKSt4pairIKjS0_IiPFi10CallParamsEEEEOT_RNSt16remove_referenceIS9_E4typeE
	add	rsp, 32
	pop	rbp
	ret
	.seh_endproc
	.section	.text$_ZNKSt8equal_toIjEclERKjS2_,"x"
	.linkonce discard
	.align 2
	.globl	_ZNKSt8equal_toIjEclERKjS2_
	.def	_ZNKSt8equal_toIjEclERKjS2_;	.scl	2;	.type	32;	.endef
	.seh_proc	_ZNKSt8equal_toIjEclERKjS2_
_ZNKSt8equal_toIjEclERKjS2_:
.LFB8137:
	push	rbp
	.seh_pushreg	rbp
	mov	rbp, rsp
	.seh_setframe	rbp, 0
	.seh_endprologue
	mov	QWORD PTR 16[rbp], rcx
	mov	QWORD PTR 24[rbp], rdx
	mov	QWORD PTR 32[rbp], r8
	mov	rax, QWORD PTR 24[rbp]
	mov	edx, DWORD PTR [rax]
	mov	rax, QWORD PTR 32[rbp]
	mov	eax, DWORD PTR [rax]
	cmp	edx, eax
	sete	al
	pop	rbp
	ret
	.seh_endproc
	.section	.text$_ZNSt15__new_allocatorINSt8__detail10_Hash_nodeISt4pairIKjS2_IiPFi10CallParamsEEELb1EEEE8allocateEyPKv,"x"
	.linkonce discard
	.align 2
	.globl	_ZNSt15__new_allocatorINSt8__detail10_Hash_nodeISt4pairIKjS2_IiPFi10CallParamsEEELb1EEEE8allocateEyPKv
	.def	_ZNSt15__new_allocatorINSt8__detail10_Hash_nodeISt4pairIKjS2_IiPFi10CallParamsEEELb1EEEE8allocateEyPKv;	.scl	2;	.type	32;	.endef
	.seh_proc	_ZNSt15__new_allocatorINSt8__detail10_Hash_nodeISt4pairIKjS2_IiPFi10CallParamsEEELb1EEEE8allocateEyPKv
_ZNSt15__new_allocatorINSt8__detail10_Hash_nodeISt4pairIKjS2_IiPFi10CallParamsEEELb1EEEE8allocateEyPKv:
.LFB8138:
	push	rbp
	.seh_pushreg	rbp
	mov	rbp, rsp
	.seh_setframe	rbp, 0
	sub	rsp, 32
	.seh_stackalloc	32
	.seh_endprologue
	mov	QWORD PTR 16[rbp], rcx
	mov	QWORD PTR 24[rbp], rdx
	mov	QWORD PTR 32[rbp], r8
	mov	rax, QWORD PTR 16[rbp]
	mov	rcx, rax
	call	_ZNKSt15__new_allocatorINSt8__detail10_Hash_nodeISt4pairIKjS2_IiPFi10CallParamsEEELb1EEEE11_M_max_sizeEv
	cmp	rax, QWORD PTR 24[rbp]
	setb	al
	movzx	eax, al
	test	eax, eax
	setne	al
	test	al, al
	je	.L359
	movabs	rax, 461168601842738790
	cmp	rax, QWORD PTR 24[rbp]
	jnb	.L360
	call	_ZSt28__throw_bad_array_new_lengthv
.L360:
	call	_ZSt17__throw_bad_allocv
.L359:
	mov	rdx, QWORD PTR 24[rbp]
	mov	rax, rdx
	sal	rax, 2
	add	rax, rdx
	sal	rax, 3
	mov	rcx, rax
	call	_Znwy
	nop
	add	rsp, 32
	pop	rbp
	ret
	.seh_endproc
	.section	.text$_ZNSt11_Tuple_implILy0EJOjEEC2EOS1_,"x"
	.linkonce discard
	.align 2
	.globl	_ZNSt11_Tuple_implILy0EJOjEEC2EOS1_
	.def	_ZNSt11_Tuple_implILy0EJOjEEC2EOS1_;	.scl	2;	.type	32;	.endef
	.seh_proc	_ZNSt11_Tuple_implILy0EJOjEEC2EOS1_
_ZNSt11_Tuple_implILy0EJOjEEC2EOS1_:
.LFB8140:
	push	rbp
	.seh_pushreg	rbp
	mov	rbp, rsp
	.seh_setframe	rbp, 0
	.seh_endprologue
	mov	QWORD PTR 16[rbp], rcx
	mov	QWORD PTR 24[rbp], rdx
	mov	rax, QWORD PTR 16[rbp]
	mov	rdx, QWORD PTR 24[rbp]
	mov	rdx, QWORD PTR [rdx]
	mov	QWORD PTR [rax], rdx
	nop
	pop	rbp
	ret
	.seh_endproc
	.section	.text$_ZNSt4pairIKjS_IiPFi10CallParamsEEEC1IJOjEJEEESt21piecewise_construct_tSt5tupleIJDpT_EES9_IJDpT0_EE,"x"
	.linkonce discard
	.align 2
	.globl	_ZNSt4pairIKjS_IiPFi10CallParamsEEEC1IJOjEJEEESt21piecewise_construct_tSt5tupleIJDpT_EES9_IJDpT0_EE
	.def	_ZNSt4pairIKjS_IiPFi10CallParamsEEEC1IJOjEJEEESt21piecewise_construct_tSt5tupleIJDpT_EES9_IJDpT0_EE;	.scl	2;	.type	32;	.endef
	.seh_proc	_ZNSt4pairIKjS_IiPFi10CallParamsEEEC1IJOjEJEEESt21piecewise_construct_tSt5tupleIJDpT_EES9_IJDpT0_EE
_ZNSt4pairIKjS_IiPFi10CallParamsEEEC1IJOjEJEEESt21piecewise_construct_tSt5tupleIJDpT_EES9_IJDpT0_EE:
.LFB8144:
	push	rbp
	.seh_pushreg	rbp
	mov	rbp, rsp
	.seh_setframe	rbp, 0
	sub	rsp, 32
	.seh_stackalloc	32
	.seh_endprologue
	mov	QWORD PTR 16[rbp], rcx
	mov	QWORD PTR 24[rbp], r8
	lea	rcx, 32[rbp]
	mov	rdx, QWORD PTR 24[rbp]
	mov	rax, QWORD PTR 16[rbp]
	mov	r8, rcx
	mov	rcx, rax
	call	_ZNSt4pairIKjS_IiPFi10CallParamsEEEC1IJOjEJLy0EEJEJEEERSt5tupleIJDpT_EERS8_IJDpT1_EESt12_Index_tupleIJXspT0_EEESH_IJXspT2_EEE
	nop
	add	rsp, 32
	pop	rbp
	ret
	.seh_endproc
	.section	.text$_ZNSt15__new_allocatorINSt8__detail10_Hash_nodeISt4pairIKjS2_IiPFi10CallParamsEEELb1EEEE10deallocateEPS9_y,"x"
	.linkonce discard
	.align 2
	.globl	_ZNSt15__new_allocatorINSt8__detail10_Hash_nodeISt4pairIKjS2_IiPFi10CallParamsEEELb1EEEE10deallocateEPS9_y
	.def	_ZNSt15__new_allocatorINSt8__detail10_Hash_nodeISt4pairIKjS2_IiPFi10CallParamsEEELb1EEEE10deallocateEPS9_y;	.scl	2;	.type	32;	.endef
	.seh_proc	_ZNSt15__new_allocatorINSt8__detail10_Hash_nodeISt4pairIKjS2_IiPFi10CallParamsEEELb1EEEE10deallocateEPS9_y
_ZNSt15__new_allocatorINSt8__detail10_Hash_nodeISt4pairIKjS2_IiPFi10CallParamsEEELb1EEEE10deallocateEPS9_y:
.LFB8145:
	push	rbp
	.seh_pushreg	rbp
	mov	rbp, rsp
	.seh_setframe	rbp, 0
	sub	rsp, 32
	.seh_stackalloc	32
	.seh_endprologue
	mov	QWORD PTR 16[rbp], rcx
	mov	QWORD PTR 24[rbp], rdx
	mov	QWORD PTR 32[rbp], r8
	mov	rdx, QWORD PTR 32[rbp]
	mov	rax, rdx
	sal	rax, 2
	add	rax, rdx
	sal	rax, 3
	mov	rdx, rax
	mov	rax, QWORD PTR 24[rbp]
	mov	rcx, rax
	call	_ZdlPvy
	nop
	add	rsp, 32
	pop	rbp
	ret
	.seh_endproc
	.section	.text$_ZSt9addressofINSt8__detail10_Hash_nodeISt4pairIKjS2_IiPFi10CallParamsEEELb1EEEEPT_RSA_,"x"
	.linkonce discard
	.globl	_ZSt9addressofINSt8__detail10_Hash_nodeISt4pairIKjS2_IiPFi10CallParamsEEELb1EEEEPT_RSA_
	.def	_ZSt9addressofINSt8__detail10_Hash_nodeISt4pairIKjS2_IiPFi10CallParamsEEELb1EEEEPT_RSA_;	.scl	2;	.type	32;	.endef
	.seh_proc	_ZSt9addressofINSt8__detail10_Hash_nodeISt4pairIKjS2_IiPFi10CallParamsEEELb1EEEEPT_RSA_
_ZSt9addressofINSt8__detail10_Hash_nodeISt4pairIKjS2_IiPFi10CallParamsEEELb1EEEEPT_RSA_:
.LFB8146:
	push	rbp
	.seh_pushreg	rbp
	mov	rbp, rsp
	.seh_setframe	rbp, 0
	sub	rsp, 32
	.seh_stackalloc	32
	.seh_endprologue
	mov	QWORD PTR 16[rbp], rcx
	mov	rax, QWORD PTR 16[rbp]
	mov	rcx, rax
	call	_ZSt11__addressofINSt8__detail10_Hash_nodeISt4pairIKjS2_IiPFi10CallParamsEEELb1EEEEPT_RSA_
	add	rsp, 32
	pop	rbp
	ret
	.seh_endproc
	.section	.text$_ZNSt8__detail16_Hashtable_allocISaINS_10_Hash_nodeISt4pairIKjS2_IiPFi10CallParamsEEELb1EEEEE19_M_allocate_bucketsEy,"x"
	.linkonce discard
	.align 2
	.globl	_ZNSt8__detail16_Hashtable_allocISaINS_10_Hash_nodeISt4pairIKjS2_IiPFi10CallParamsEEELb1EEEEE19_M_allocate_bucketsEy
	.def	_ZNSt8__detail16_Hashtable_allocISaINS_10_Hash_nodeISt4pairIKjS2_IiPFi10CallParamsEEELb1EEEEE19_M_allocate_bucketsEy;	.scl	2;	.type	32;	.endef
	.seh_proc	_ZNSt8__detail16_Hashtable_allocISaINS_10_Hash_nodeISt4pairIKjS2_IiPFi10CallParamsEEELb1EEEEE19_M_allocate_bucketsEy
_ZNSt8__detail16_Hashtable_allocISaINS_10_Hash_nodeISt4pairIKjS2_IiPFi10CallParamsEEELb1EEEEE19_M_allocate_bucketsEy:
.LFB8147:
	push	rbp
	.seh_pushreg	rbp
	push	rbx
	.seh_pushreg	rbx
	sub	rsp, 72
	.seh_stackalloc	72
	lea	rbp, 64[rsp]
	.seh_setframe	rbp, 64
	.seh_endprologue
	mov	QWORD PTR 32[rbp], rcx
	mov	QWORD PTR 40[rbp], rdx
	mov	rax, QWORD PTR 32[rbp]
	mov	rcx, rax
	call	_ZNSt8__detail16_Hashtable_allocISaINS_10_Hash_nodeISt4pairIKjS2_IiPFi10CallParamsEEELb1EEEEE17_M_node_allocatorEv
	mov	rdx, rax
	lea	rax, -17[rbp]
	mov	rcx, rax
	call	_ZNSaIPNSt8__detail15_Hash_node_baseEEC1INS_10_Hash_nodeISt4pairIKjS5_IiPFi10CallParamsEEELb1EEEEERKSaIT_E
	mov	rdx, QWORD PTR 40[rbp]
	lea	rax, -17[rbp]
	mov	rcx, rax
.LEHB12:
	call	_ZNSt16allocator_traitsISaIPNSt8__detail15_Hash_node_baseEEE8allocateERS3_y
.LEHE12:
	mov	QWORD PTR -8[rbp], rax
	mov	rax, QWORD PTR -8[rbp]
	mov	rcx, rax
	call	_ZSt12__to_addressIPNSt8__detail15_Hash_node_baseEEPT_S4_
	mov	QWORD PTR -16[rbp], rax
	mov	rax, QWORD PTR 40[rbp]
	lea	rdx, 0[0+rax*8]
	mov	rax, QWORD PTR -16[rbp]
	mov	r8, rdx
	mov	edx, 0
	mov	rcx, rax
	call	memset
	mov	rbx, QWORD PTR -16[rbp]
	lea	rax, -17[rbp]
	mov	rcx, rax
	call	_ZNSaIPNSt8__detail15_Hash_node_baseEED1Ev
	mov	rax, rbx
	jmp	.L372
.L371:
	mov	rbx, rax
	lea	rax, -17[rbp]
	mov	rcx, rax
	call	_ZNSaIPNSt8__detail15_Hash_node_baseEED1Ev
	mov	rax, rbx
	mov	rcx, rax
.LEHB13:
	call	_Unwind_Resume
.LEHE13:
.L372:
	add	rsp, 72
	pop	rbx
	pop	rbp
	ret
	.seh_handler	__gxx_personality_seh0, @unwind, @except
	.seh_handlerdata
.LLSDA8147:
	.byte	0xff
	.byte	0xff
	.byte	0x1
	.uleb128 .LLSDACSE8147-.LLSDACSB8147
.LLSDACSB8147:
	.uleb128 .LEHB12-.LFB8147
	.uleb128 .LEHE12-.LEHB12
	.uleb128 .L371-.LFB8147
	.uleb128 0
	.uleb128 .LEHB13-.LFB8147
	.uleb128 .LEHE13-.LEHB13
	.uleb128 0
	.uleb128 0
.LLSDACSE8147:
	.section	.text$_ZNSt8__detail16_Hashtable_allocISaINS_10_Hash_nodeISt4pairIKjS2_IiPFi10CallParamsEEELb1EEEEE19_M_allocate_bucketsEy,"x"
	.linkonce discard
	.seh_endproc
	.section	.text$_ZNSt10_HashtableIjSt4pairIKjS0_IiPFi10CallParamsEEESaIS6_ENSt8__detail10_Select1stESt8equal_toIjE6HasherNS8_18_Mod_range_hashingENS8_20_Default_ranged_hashENS8_20_Prime_rehash_policyENS8_17_Hashtable_traitsILb1ELb0ELb1EEEE21_M_deallocate_bucketsEPPNS8_15_Hash_node_baseEy,"x"
	.linkonce discard
	.align 2
	.globl	_ZNSt10_HashtableIjSt4pairIKjS0_IiPFi10CallParamsEEESaIS6_ENSt8__detail10_Select1stESt8equal_toIjE6HasherNS8_18_Mod_range_hashingENS8_20_Default_ranged_hashENS8_20_Prime_rehash_policyENS8_17_Hashtable_traitsILb1ELb0ELb1EEEE21_M_deallocate_bucketsEPPNS8_15_Hash_node_baseEy
	.def	_ZNSt10_HashtableIjSt4pairIKjS0_IiPFi10CallParamsEEESaIS6_ENSt8__detail10_Select1stESt8equal_toIjE6HasherNS8_18_Mod_range_hashingENS8_20_Default_ranged_hashENS8_20_Prime_rehash_policyENS8_17_Hashtable_traitsILb1ELb0ELb1EEEE21_M_deallocate_bucketsEPPNS8_15_Hash_node_baseEy;	.scl	2;	.type	32;	.endef
	.seh_proc	_ZNSt10_HashtableIjSt4pairIKjS0_IiPFi10CallParamsEEESaIS6_ENSt8__detail10_Select1stESt8equal_toIjE6HasherNS8_18_Mod_range_hashingENS8_20_Default_ranged_hashENS8_20_Prime_rehash_policyENS8_17_Hashtable_traitsILb1ELb0ELb1EEEE21_M_deallocate_bucketsEPPNS8_15_Hash_node_baseEy
_ZNSt10_HashtableIjSt4pairIKjS0_IiPFi10CallParamsEEESaIS6_ENSt8__detail10_Select1stESt8equal_toIjE6HasherNS8_18_Mod_range_hashingENS8_20_Default_ranged_hashENS8_20_Prime_rehash_policyENS8_17_Hashtable_traitsILb1ELb0ELb1EEEE21_M_deallocate_bucketsEPPNS8_15_Hash_node_baseEy:
.LFB8148:
	push	rbp
	.seh_pushreg	rbp
	mov	rbp, rsp
	.seh_setframe	rbp, 0
	sub	rsp, 32
	.seh_stackalloc	32
	.seh_endprologue
	mov	QWORD PTR 16[rbp], rcx
	mov	QWORD PTR 24[rbp], rdx
	mov	QWORD PTR 32[rbp], r8
	mov	rdx, QWORD PTR 24[rbp]
	mov	rax, QWORD PTR 16[rbp]
	mov	rcx, rax
	call	_ZNKSt10_HashtableIjSt4pairIKjS0_IiPFi10CallParamsEEESaIS6_ENSt8__detail10_Select1stESt8equal_toIjE6HasherNS8_18_Mod_range_hashingENS8_20_Default_ranged_hashENS8_20_Prime_rehash_policyENS8_17_Hashtable_traitsILb1ELb0ELb1EEEE21_M_uses_single_bucketEPPNS8_15_Hash_node_baseE
	test	al, al
	jne	.L376
	mov	rcx, QWORD PTR 32[rbp]
	mov	rdx, QWORD PTR 24[rbp]
	mov	rax, QWORD PTR 16[rbp]
	mov	r8, rcx
	mov	rcx, rax
	call	_ZNSt8__detail16_Hashtable_allocISaINS_10_Hash_nodeISt4pairIKjS2_IiPFi10CallParamsEEELb1EEEEE21_M_deallocate_bucketsEPPNS_15_Hash_node_baseEy
	jmp	.L373
.L376:
	nop
.L373:
	add	rsp, 32
	pop	rbp
	ret
	.seh_endproc
	.section	.text$_ZNKSt8__detail21_Hashtable_ebo_helperILi0ESt8equal_toIjELb1EE7_M_cgetEv,"x"
	.linkonce discard
	.align 2
	.globl	_ZNKSt8__detail21_Hashtable_ebo_helperILi0ESt8equal_toIjELb1EE7_M_cgetEv
	.def	_ZNKSt8__detail21_Hashtable_ebo_helperILi0ESt8equal_toIjELb1EE7_M_cgetEv;	.scl	2;	.type	32;	.endef
	.seh_proc	_ZNKSt8__detail21_Hashtable_ebo_helperILi0ESt8equal_toIjELb1EE7_M_cgetEv
_ZNKSt8__detail21_Hashtable_ebo_helperILi0ESt8equal_toIjELb1EE7_M_cgetEv:
.LFB8149:
	push	rbp
	.seh_pushreg	rbp
	mov	rbp, rsp
	.seh_setframe	rbp, 0
	.seh_endprologue
	mov	QWORD PTR 16[rbp], rcx
	mov	rax, QWORD PTR 16[rbp]
	pop	rbp
	ret
	.seh_endproc
	.section	.text$_ZNKSt8__detail21_Hash_node_value_baseISt4pairIKjS1_IiPFi10CallParamsEEEE9_M_valptrEv,"x"
	.linkonce discard
	.align 2
	.globl	_ZNKSt8__detail21_Hash_node_value_baseISt4pairIKjS1_IiPFi10CallParamsEEEE9_M_valptrEv
	.def	_ZNKSt8__detail21_Hash_node_value_baseISt4pairIKjS1_IiPFi10CallParamsEEEE9_M_valptrEv;	.scl	2;	.type	32;	.endef
	.seh_proc	_ZNKSt8__detail21_Hash_node_value_baseISt4pairIKjS1_IiPFi10CallParamsEEEE9_M_valptrEv
_ZNKSt8__detail21_Hash_node_value_baseISt4pairIKjS1_IiPFi10CallParamsEEEE9_M_valptrEv:
.LFB8150:
	push	rbp
	.seh_pushreg	rbp
	mov	rbp, rsp
	.seh_setframe	rbp, 0
	sub	rsp, 32
	.seh_stackalloc	32
	.seh_endprologue
	mov	QWORD PTR 16[rbp], rcx
	mov	rax, QWORD PTR 16[rbp]
	mov	rcx, rax
	call	_ZNK9__gnu_cxx16__aligned_bufferISt4pairIKjS1_IiPFi10CallParamsEEEE6_M_ptrEv
	add	rsp, 32
	pop	rbp
	ret
	.seh_endproc
	.section	.text$_ZSt7forwardIRKSt4pairIKjS0_IiPFi10CallParamsEEEEOT_RNSt16remove_referenceIS9_E4typeE,"x"
	.linkonce discard
	.globl	_ZSt7forwardIRKSt4pairIKjS0_IiPFi10CallParamsEEEEOT_RNSt16remove_referenceIS9_E4typeE
	.def	_ZSt7forwardIRKSt4pairIKjS0_IiPFi10CallParamsEEEEOT_RNSt16remove_referenceIS9_E4typeE;	.scl	2;	.type	32;	.endef
	.seh_proc	_ZSt7forwardIRKSt4pairIKjS0_IiPFi10CallParamsEEEEOT_RNSt16remove_referenceIS9_E4typeE
_ZSt7forwardIRKSt4pairIKjS0_IiPFi10CallParamsEEEEOT_RNSt16remove_referenceIS9_E4typeE:
.LFB8151:
	push	rbp
	.seh_pushreg	rbp
	mov	rbp, rsp
	.seh_setframe	rbp, 0
	.seh_endprologue
	mov	QWORD PTR 16[rbp], rcx
	mov	rax, QWORD PTR 16[rbp]
	pop	rbp
	ret
	.seh_endproc
	.section	.text$_ZNKSt15__new_allocatorINSt8__detail10_Hash_nodeISt4pairIKjS2_IiPFi10CallParamsEEELb1EEEE11_M_max_sizeEv,"x"
	.linkonce discard
	.align 2
	.globl	_ZNKSt15__new_allocatorINSt8__detail10_Hash_nodeISt4pairIKjS2_IiPFi10CallParamsEEELb1EEEE11_M_max_sizeEv
	.def	_ZNKSt15__new_allocatorINSt8__detail10_Hash_nodeISt4pairIKjS2_IiPFi10CallParamsEEELb1EEEE11_M_max_sizeEv;	.scl	2;	.type	32;	.endef
	.seh_proc	_ZNKSt15__new_allocatorINSt8__detail10_Hash_nodeISt4pairIKjS2_IiPFi10CallParamsEEELb1EEEE11_M_max_sizeEv
_ZNKSt15__new_allocatorINSt8__detail10_Hash_nodeISt4pairIKjS2_IiPFi10CallParamsEEELb1EEEE11_M_max_sizeEv:
.LFB8152:
	push	rbp
	.seh_pushreg	rbp
	mov	rbp, rsp
	.seh_setframe	rbp, 0
	.seh_endprologue
	mov	QWORD PTR 16[rbp], rcx
	movabs	rax, 230584300921369395
	pop	rbp
	ret
	.seh_endproc
	.section	.text$_ZNSt4pairIKjS_IiPFi10CallParamsEEEC1IJOjEJLy0EEJEJEEERSt5tupleIJDpT_EERS8_IJDpT1_EESt12_Index_tupleIJXspT0_EEESH_IJXspT2_EEE,"x"
	.linkonce discard
	.align 2
	.globl	_ZNSt4pairIKjS_IiPFi10CallParamsEEEC1IJOjEJLy0EEJEJEEERSt5tupleIJDpT_EERS8_IJDpT1_EESt12_Index_tupleIJXspT0_EEESH_IJXspT2_EEE
	.def	_ZNSt4pairIKjS_IiPFi10CallParamsEEEC1IJOjEJLy0EEJEJEEERSt5tupleIJDpT_EERS8_IJDpT1_EESt12_Index_tupleIJXspT0_EEESH_IJXspT2_EEE;	.scl	2;	.type	32;	.endef
	.seh_proc	_ZNSt4pairIKjS_IiPFi10CallParamsEEEC1IJOjEJLy0EEJEJEEERSt5tupleIJDpT_EERS8_IJDpT1_EESt12_Index_tupleIJXspT0_EEESH_IJXspT2_EEE
_ZNSt4pairIKjS_IiPFi10CallParamsEEEC1IJOjEJLy0EEJEJEEERSt5tupleIJDpT_EERS8_IJDpT1_EESt12_Index_tupleIJXspT0_EEESH_IJXspT2_EEE:
.LFB8155:
	push	rbp
	.seh_pushreg	rbp
	mov	rbp, rsp
	.seh_setframe	rbp, 0
	sub	rsp, 32
	.seh_stackalloc	32
	.seh_endprologue
	mov	QWORD PTR 16[rbp], rcx
	mov	QWORD PTR 24[rbp], rdx
	mov	QWORD PTR 32[rbp], r8
	mov	rax, QWORD PTR 24[rbp]
	mov	rcx, rax
	call	_ZSt3getILy0EJOjEERNSt13tuple_elementIXT_ESt5tupleIJDpT0_EEE4typeERS5_
	mov	rcx, rax
	call	_ZSt7forwardIOjEOT_RNSt16remove_referenceIS1_E4typeE
	mov	edx, DWORD PTR [rax]
	mov	rax, QWORD PTR 16[rbp]
	mov	DWORD PTR [rax], edx
	mov	rax, QWORD PTR 16[rbp]
	add	rax, 8
	mov	rcx, rax
	call	_ZNSt4pairIiPFi10CallParamsEEC1Ev
	nop
	add	rsp, 32
	pop	rbp
	ret
	.seh_endproc
	.section	.text$_ZSt11__addressofINSt8__detail10_Hash_nodeISt4pairIKjS2_IiPFi10CallParamsEEELb1EEEEPT_RSA_,"x"
	.linkonce discard
	.globl	_ZSt11__addressofINSt8__detail10_Hash_nodeISt4pairIKjS2_IiPFi10CallParamsEEELb1EEEEPT_RSA_
	.def	_ZSt11__addressofINSt8__detail10_Hash_nodeISt4pairIKjS2_IiPFi10CallParamsEEELb1EEEEPT_RSA_;	.scl	2;	.type	32;	.endef
	.seh_proc	_ZSt11__addressofINSt8__detail10_Hash_nodeISt4pairIKjS2_IiPFi10CallParamsEEELb1EEEEPT_RSA_
_ZSt11__addressofINSt8__detail10_Hash_nodeISt4pairIKjS2_IiPFi10CallParamsEEELb1EEEEPT_RSA_:
.LFB8156:
	push	rbp
	.seh_pushreg	rbp
	mov	rbp, rsp
	.seh_setframe	rbp, 0
	.seh_endprologue
	mov	QWORD PTR 16[rbp], rcx
	mov	rax, QWORD PTR 16[rbp]
	pop	rbp
	ret
	.seh_endproc
	.section	.text$_ZNSaIPNSt8__detail15_Hash_node_baseEEC1INS_10_Hash_nodeISt4pairIKjS5_IiPFi10CallParamsEEELb1EEEEERKSaIT_E,"x"
	.linkonce discard
	.align 2
	.globl	_ZNSaIPNSt8__detail15_Hash_node_baseEEC1INS_10_Hash_nodeISt4pairIKjS5_IiPFi10CallParamsEEELb1EEEEERKSaIT_E
	.def	_ZNSaIPNSt8__detail15_Hash_node_baseEEC1INS_10_Hash_nodeISt4pairIKjS5_IiPFi10CallParamsEEELb1EEEEERKSaIT_E;	.scl	2;	.type	32;	.endef
	.seh_proc	_ZNSaIPNSt8__detail15_Hash_node_baseEEC1INS_10_Hash_nodeISt4pairIKjS5_IiPFi10CallParamsEEELb1EEEEERKSaIT_E
_ZNSaIPNSt8__detail15_Hash_node_baseEEC1INS_10_Hash_nodeISt4pairIKjS5_IiPFi10CallParamsEEELb1EEEEERKSaIT_E:
.LFB8159:
	push	rbp
	.seh_pushreg	rbp
	mov	rbp, rsp
	.seh_setframe	rbp, 0
	sub	rsp, 32
	.seh_stackalloc	32
	.seh_endprologue
	mov	QWORD PTR 16[rbp], rcx
	mov	QWORD PTR 24[rbp], rdx
	mov	rax, QWORD PTR 16[rbp]
	mov	rcx, rax
	call	_ZNSt15__new_allocatorIPNSt8__detail15_Hash_node_baseEEC2Ev
	nop
	add	rsp, 32
	pop	rbp
	ret
	.seh_endproc
	.section	.text$_ZNSaIPNSt8__detail15_Hash_node_baseEED1Ev,"x"
	.linkonce discard
	.align 2
	.globl	_ZNSaIPNSt8__detail15_Hash_node_baseEED1Ev
	.def	_ZNSaIPNSt8__detail15_Hash_node_baseEED1Ev;	.scl	2;	.type	32;	.endef
	.seh_proc	_ZNSaIPNSt8__detail15_Hash_node_baseEED1Ev
_ZNSaIPNSt8__detail15_Hash_node_baseEED1Ev:
.LFB8162:
	push	rbp
	.seh_pushreg	rbp
	mov	rbp, rsp
	.seh_setframe	rbp, 0
	.seh_endprologue
	mov	QWORD PTR 16[rbp], rcx
	nop
	pop	rbp
	ret
	.seh_endproc
	.section	.text$_ZNSt16allocator_traitsISaIPNSt8__detail15_Hash_node_baseEEE8allocateERS3_y,"x"
	.linkonce discard
	.globl	_ZNSt16allocator_traitsISaIPNSt8__detail15_Hash_node_baseEEE8allocateERS3_y
	.def	_ZNSt16allocator_traitsISaIPNSt8__detail15_Hash_node_baseEEE8allocateERS3_y;	.scl	2;	.type	32;	.endef
	.seh_proc	_ZNSt16allocator_traitsISaIPNSt8__detail15_Hash_node_baseEEE8allocateERS3_y
_ZNSt16allocator_traitsISaIPNSt8__detail15_Hash_node_baseEEE8allocateERS3_y:
.LFB8163:
	push	rbp
	.seh_pushreg	rbp
	mov	rbp, rsp
	.seh_setframe	rbp, 0
	sub	rsp, 48
	.seh_stackalloc	48
	.seh_endprologue
	mov	QWORD PTR 16[rbp], rcx
	mov	QWORD PTR 24[rbp], rdx
	mov	rax, QWORD PTR 16[rbp]
	mov	QWORD PTR -8[rbp], rax
	mov	rax, QWORD PTR 24[rbp]
	mov	QWORD PTR -16[rbp], rax
	call	_ZSt23__is_constant_evaluatedv
	test	al, al
	je	.L391
	mov	rax, QWORD PTR -16[rbp]
	mov	ecx, 0
	lea	rdx, 0[0+rax*8]
	shr	rax, 61
	test	rax, rax
	je	.L392
	mov	ecx, 1
.L392:
	mov	rax, rdx
	mov	QWORD PTR -16[rbp], rax
	mov	rax, rcx
	and	eax, 1
	test	al, al
	je	.L394
	call	_ZSt28__throw_bad_array_new_lengthv
.L394:
	mov	rax, QWORD PTR -16[rbp]
	mov	rcx, rax
	call	_Znwy
	jmp	.L395
.L391:
	mov	rdx, QWORD PTR -16[rbp]
	mov	rax, QWORD PTR -8[rbp]
	mov	r8d, 0
	mov	rcx, rax
	call	_ZNSt15__new_allocatorIPNSt8__detail15_Hash_node_baseEE8allocateEyPKv
	nop
.L395:
	add	rsp, 48
	pop	rbp
	ret
	.seh_endproc
	.section	.text$_ZSt12__to_addressIPNSt8__detail15_Hash_node_baseEEPT_S4_,"x"
	.linkonce discard
	.globl	_ZSt12__to_addressIPNSt8__detail15_Hash_node_baseEEPT_S4_
	.def	_ZSt12__to_addressIPNSt8__detail15_Hash_node_baseEEPT_S4_;	.scl	2;	.type	32;	.endef
	.seh_proc	_ZSt12__to_addressIPNSt8__detail15_Hash_node_baseEEPT_S4_
_ZSt12__to_addressIPNSt8__detail15_Hash_node_baseEEPT_S4_:
.LFB8164:
	push	rbp
	.seh_pushreg	rbp
	mov	rbp, rsp
	.seh_setframe	rbp, 0
	.seh_endprologue
	mov	QWORD PTR 16[rbp], rcx
	mov	rax, QWORD PTR 16[rbp]
	pop	rbp
	ret
	.seh_endproc
	.section	.text$_ZNKSt10_HashtableIjSt4pairIKjS0_IiPFi10CallParamsEEESaIS6_ENSt8__detail10_Select1stESt8equal_toIjE6HasherNS8_18_Mod_range_hashingENS8_20_Default_ranged_hashENS8_20_Prime_rehash_policyENS8_17_Hashtable_traitsILb1ELb0ELb1EEEE21_M_uses_single_bucketEPPNS8_15_Hash_node_baseE,"x"
	.linkonce discard
	.align 2
	.globl	_ZNKSt10_HashtableIjSt4pairIKjS0_IiPFi10CallParamsEEESaIS6_ENSt8__detail10_Select1stESt8equal_toIjE6HasherNS8_18_Mod_range_hashingENS8_20_Default_ranged_hashENS8_20_Prime_rehash_policyENS8_17_Hashtable_traitsILb1ELb0ELb1EEEE21_M_uses_single_bucketEPPNS8_15_Hash_node_baseE
	.def	_ZNKSt10_HashtableIjSt4pairIKjS0_IiPFi10CallParamsEEESaIS6_ENSt8__detail10_Select1stESt8equal_toIjE6HasherNS8_18_Mod_range_hashingENS8_20_Default_ranged_hashENS8_20_Prime_rehash_policyENS8_17_Hashtable_traitsILb1ELb0ELb1EEEE21_M_uses_single_bucketEPPNS8_15_Hash_node_baseE;	.scl	2;	.type	32;	.endef
	.seh_proc	_ZNKSt10_HashtableIjSt4pairIKjS0_IiPFi10CallParamsEEESaIS6_ENSt8__detail10_Select1stESt8equal_toIjE6HasherNS8_18_Mod_range_hashingENS8_20_Default_ranged_hashENS8_20_Prime_rehash_policyENS8_17_Hashtable_traitsILb1ELb0ELb1EEEE21_M_uses_single_bucketEPPNS8_15_Hash_node_baseE
_ZNKSt10_HashtableIjSt4pairIKjS0_IiPFi10CallParamsEEESaIS6_ENSt8__detail10_Select1stESt8equal_toIjE6HasherNS8_18_Mod_range_hashingENS8_20_Default_ranged_hashENS8_20_Prime_rehash_policyENS8_17_Hashtable_traitsILb1ELb0ELb1EEEE21_M_uses_single_bucketEPPNS8_15_Hash_node_baseE:
.LFB8165:
	push	rbp
	.seh_pushreg	rbp
	mov	rbp, rsp
	.seh_setframe	rbp, 0
	.seh_endprologue
	mov	QWORD PTR 16[rbp], rcx
	mov	QWORD PTR 24[rbp], rdx
	mov	rax, QWORD PTR 16[rbp]
	add	rax, 48
	cmp	QWORD PTR 24[rbp], rax
	sete	al
	movzx	eax, al
	test	eax, eax
	setne	al
	pop	rbp
	ret
	.seh_endproc
	.section	.text$_ZNSt8__detail16_Hashtable_allocISaINS_10_Hash_nodeISt4pairIKjS2_IiPFi10CallParamsEEELb1EEEEE21_M_deallocate_bucketsEPPNS_15_Hash_node_baseEy,"x"
	.linkonce discard
	.align 2
	.globl	_ZNSt8__detail16_Hashtable_allocISaINS_10_Hash_nodeISt4pairIKjS2_IiPFi10CallParamsEEELb1EEEEE21_M_deallocate_bucketsEPPNS_15_Hash_node_baseEy
	.def	_ZNSt8__detail16_Hashtable_allocISaINS_10_Hash_nodeISt4pairIKjS2_IiPFi10CallParamsEEELb1EEEEE21_M_deallocate_bucketsEPPNS_15_Hash_node_baseEy;	.scl	2;	.type	32;	.endef
	.seh_proc	_ZNSt8__detail16_Hashtable_allocISaINS_10_Hash_nodeISt4pairIKjS2_IiPFi10CallParamsEEELb1EEEEE21_M_deallocate_bucketsEPPNS_15_Hash_node_baseEy
_ZNSt8__detail16_Hashtable_allocISaINS_10_Hash_nodeISt4pairIKjS2_IiPFi10CallParamsEEELb1EEEEE21_M_deallocate_bucketsEPPNS_15_Hash_node_baseEy:
.LFB8166:
	push	rbp
	.seh_pushreg	rbp
	push	rbx
	.seh_pushreg	rbx
	sub	rsp, 56
	.seh_stackalloc	56
	lea	rbp, 48[rsp]
	.seh_setframe	rbp, 48
	.seh_endprologue
	mov	QWORD PTR 32[rbp], rcx
	mov	QWORD PTR 40[rbp], rdx
	mov	QWORD PTR 48[rbp], r8
	mov	rax, QWORD PTR 40[rbp]
	mov	rcx, rax
	call	_ZNSt19__ptr_traits_ptr_toIPPNSt8__detail15_Hash_node_baseES2_Lb0EE10pointer_toERS2_
	mov	QWORD PTR -8[rbp], rax
	mov	rax, QWORD PTR 32[rbp]
	mov	rcx, rax
	call	_ZNSt8__detail16_Hashtable_allocISaINS_10_Hash_nodeISt4pairIKjS2_IiPFi10CallParamsEEELb1EEEEE17_M_node_allocatorEv
	mov	rdx, rax
	lea	rax, -9[rbp]
	mov	rcx, rax
	call	_ZNSaIPNSt8__detail15_Hash_node_baseEEC1INS_10_Hash_nodeISt4pairIKjS5_IiPFi10CallParamsEEELb1EEEEERKSaIT_E
	mov	rcx, QWORD PTR 48[rbp]
	mov	rdx, QWORD PTR -8[rbp]
	lea	rax, -9[rbp]
	mov	r8, rcx
	mov	rcx, rax
.LEHB14:
	call	_ZNSt16allocator_traitsISaIPNSt8__detail15_Hash_node_baseEEE10deallocateERS3_PS2_y
.LEHE14:
	lea	rax, -9[rbp]
	mov	rcx, rax
	call	_ZNSaIPNSt8__detail15_Hash_node_baseEED1Ev
	jmp	.L404
.L403:
	mov	rbx, rax
	lea	rax, -9[rbp]
	mov	rcx, rax
	call	_ZNSaIPNSt8__detail15_Hash_node_baseEED1Ev
	mov	rax, rbx
	mov	rcx, rax
.LEHB15:
	call	_Unwind_Resume
	nop
.LEHE15:
.L404:
	add	rsp, 56
	pop	rbx
	pop	rbp
	ret
	.seh_handler	__gxx_personality_seh0, @unwind, @except
	.seh_handlerdata
.LLSDA8166:
	.byte	0xff
	.byte	0xff
	.byte	0x1
	.uleb128 .LLSDACSE8166-.LLSDACSB8166
.LLSDACSB8166:
	.uleb128 .LEHB14-.LFB8166
	.uleb128 .LEHE14-.LEHB14
	.uleb128 .L403-.LFB8166
	.uleb128 0
	.uleb128 .LEHB15-.LFB8166
	.uleb128 .LEHE15-.LEHB15
	.uleb128 0
	.uleb128 0
.LLSDACSE8166:
	.section	.text$_ZNSt8__detail16_Hashtable_allocISaINS_10_Hash_nodeISt4pairIKjS2_IiPFi10CallParamsEEELb1EEEEE21_M_deallocate_bucketsEPPNS_15_Hash_node_baseEy,"x"
	.linkonce discard
	.seh_endproc
	.section	.text$_ZNK9__gnu_cxx16__aligned_bufferISt4pairIKjS1_IiPFi10CallParamsEEEE6_M_ptrEv,"x"
	.linkonce discard
	.align 2
	.globl	_ZNK9__gnu_cxx16__aligned_bufferISt4pairIKjS1_IiPFi10CallParamsEEEE6_M_ptrEv
	.def	_ZNK9__gnu_cxx16__aligned_bufferISt4pairIKjS1_IiPFi10CallParamsEEEE6_M_ptrEv;	.scl	2;	.type	32;	.endef
	.seh_proc	_ZNK9__gnu_cxx16__aligned_bufferISt4pairIKjS1_IiPFi10CallParamsEEEE6_M_ptrEv
_ZNK9__gnu_cxx16__aligned_bufferISt4pairIKjS1_IiPFi10CallParamsEEEE6_M_ptrEv:
.LFB8167:
	push	rbp
	.seh_pushreg	rbp
	mov	rbp, rsp
	.seh_setframe	rbp, 0
	sub	rsp, 32
	.seh_stackalloc	32
	.seh_endprologue
	mov	QWORD PTR 16[rbp], rcx
	mov	rax, QWORD PTR 16[rbp]
	mov	rcx, rax
	call	_ZNK9__gnu_cxx16__aligned_bufferISt4pairIKjS1_IiPFi10CallParamsEEEE7_M_addrEv
	add	rsp, 32
	pop	rbp
	ret
	.seh_endproc
	.section	.text$_ZSt3getILy0EJOjEERNSt13tuple_elementIXT_ESt5tupleIJDpT0_EEE4typeERS5_,"x"
	.linkonce discard
	.globl	_ZSt3getILy0EJOjEERNSt13tuple_elementIXT_ESt5tupleIJDpT0_EEE4typeERS5_
	.def	_ZSt3getILy0EJOjEERNSt13tuple_elementIXT_ESt5tupleIJDpT0_EEE4typeERS5_;	.scl	2;	.type	32;	.endef
	.seh_proc	_ZSt3getILy0EJOjEERNSt13tuple_elementIXT_ESt5tupleIJDpT0_EEE4typeERS5_
_ZSt3getILy0EJOjEERNSt13tuple_elementIXT_ESt5tupleIJDpT0_EEE4typeERS5_:
.LFB8168:
	push	rbp
	.seh_pushreg	rbp
	mov	rbp, rsp
	.seh_setframe	rbp, 0
	sub	rsp, 32
	.seh_stackalloc	32
	.seh_endprologue
	mov	QWORD PTR 16[rbp], rcx
	mov	rax, QWORD PTR 16[rbp]
	mov	rcx, rax
	call	_ZSt12__get_helperILy0EOjJEERT0_RSt11_Tuple_implIXT_EJS1_DpT1_EE
	add	rsp, 32
	pop	rbp
	ret
	.seh_endproc
	.section	.text$_ZSt7forwardIOjEOT_RNSt16remove_referenceIS1_E4typeE,"x"
	.linkonce discard
	.globl	_ZSt7forwardIOjEOT_RNSt16remove_referenceIS1_E4typeE
	.def	_ZSt7forwardIOjEOT_RNSt16remove_referenceIS1_E4typeE;	.scl	2;	.type	32;	.endef
	.seh_proc	_ZSt7forwardIOjEOT_RNSt16remove_referenceIS1_E4typeE
_ZSt7forwardIOjEOT_RNSt16remove_referenceIS1_E4typeE:
.LFB8169:
	push	rbp
	.seh_pushreg	rbp
	mov	rbp, rsp
	.seh_setframe	rbp, 0
	.seh_endprologue
	mov	QWORD PTR 16[rbp], rcx
	mov	rax, QWORD PTR 16[rbp]
	pop	rbp
	ret
	.seh_endproc
	.section	.text$_ZNSt4pairIiPFi10CallParamsEEC1Ev,"x"
	.linkonce discard
	.align 2
	.globl	_ZNSt4pairIiPFi10CallParamsEEC1Ev
	.def	_ZNSt4pairIiPFi10CallParamsEEC1Ev;	.scl	2;	.type	32;	.endef
	.seh_proc	_ZNSt4pairIiPFi10CallParamsEEC1Ev
_ZNSt4pairIiPFi10CallParamsEEC1Ev:
.LFB8172:
	push	rbp
	.seh_pushreg	rbp
	mov	rbp, rsp
	.seh_setframe	rbp, 0
	.seh_endprologue
	mov	QWORD PTR 16[rbp], rcx
	mov	rax, QWORD PTR 16[rbp]
	mov	DWORD PTR [rax], 0
	mov	rax, QWORD PTR 16[rbp]
	mov	QWORD PTR 8[rax], 0
	nop
	pop	rbp
	ret
	.seh_endproc
	.section	.text$_ZNSt15__new_allocatorIPNSt8__detail15_Hash_node_baseEEC2Ev,"x"
	.linkonce discard
	.align 2
	.globl	_ZNSt15__new_allocatorIPNSt8__detail15_Hash_node_baseEEC2Ev
	.def	_ZNSt15__new_allocatorIPNSt8__detail15_Hash_node_baseEEC2Ev;	.scl	2;	.type	32;	.endef
	.seh_proc	_ZNSt15__new_allocatorIPNSt8__detail15_Hash_node_baseEEC2Ev
_ZNSt15__new_allocatorIPNSt8__detail15_Hash_node_baseEEC2Ev:
.LFB8174:
	push	rbp
	.seh_pushreg	rbp
	mov	rbp, rsp
	.seh_setframe	rbp, 0
	.seh_endprologue
	mov	QWORD PTR 16[rbp], rcx
	nop
	pop	rbp
	ret
	.seh_endproc
	.section	.text$_ZNSt19__ptr_traits_ptr_toIPPNSt8__detail15_Hash_node_baseES2_Lb0EE10pointer_toERS2_,"x"
	.linkonce discard
	.globl	_ZNSt19__ptr_traits_ptr_toIPPNSt8__detail15_Hash_node_baseES2_Lb0EE10pointer_toERS2_
	.def	_ZNSt19__ptr_traits_ptr_toIPPNSt8__detail15_Hash_node_baseES2_Lb0EE10pointer_toERS2_;	.scl	2;	.type	32;	.endef
	.seh_proc	_ZNSt19__ptr_traits_ptr_toIPPNSt8__detail15_Hash_node_baseES2_Lb0EE10pointer_toERS2_
_ZNSt19__ptr_traits_ptr_toIPPNSt8__detail15_Hash_node_baseES2_Lb0EE10pointer_toERS2_:
.LFB8177:
	push	rbp
	.seh_pushreg	rbp
	mov	rbp, rsp
	.seh_setframe	rbp, 0
	sub	rsp, 32
	.seh_stackalloc	32
	.seh_endprologue
	mov	QWORD PTR 16[rbp], rcx
	mov	rax, QWORD PTR 16[rbp]
	mov	rcx, rax
	call	_ZSt9addressofIPNSt8__detail15_Hash_node_baseEEPT_RS3_
	add	rsp, 32
	pop	rbp
	ret
	.seh_endproc
	.section	.text$_ZNSt16allocator_traitsISaIPNSt8__detail15_Hash_node_baseEEE10deallocateERS3_PS2_y,"x"
	.linkonce discard
	.globl	_ZNSt16allocator_traitsISaIPNSt8__detail15_Hash_node_baseEEE10deallocateERS3_PS2_y
	.def	_ZNSt16allocator_traitsISaIPNSt8__detail15_Hash_node_baseEEE10deallocateERS3_PS2_y;	.scl	2;	.type	32;	.endef
	.seh_proc	_ZNSt16allocator_traitsISaIPNSt8__detail15_Hash_node_baseEEE10deallocateERS3_PS2_y
_ZNSt16allocator_traitsISaIPNSt8__detail15_Hash_node_baseEEE10deallocateERS3_PS2_y:
.LFB8178:
	push	rbp
	.seh_pushreg	rbp
	mov	rbp, rsp
	.seh_setframe	rbp, 0
	sub	rsp, 64
	.seh_stackalloc	64
	.seh_endprologue
	mov	QWORD PTR 16[rbp], rcx
	mov	QWORD PTR 24[rbp], rdx
	mov	QWORD PTR 32[rbp], r8
	mov	rax, QWORD PTR 16[rbp]
	mov	QWORD PTR -8[rbp], rax
	mov	rax, QWORD PTR 24[rbp]
	mov	QWORD PTR -16[rbp], rax
	mov	rax, QWORD PTR 32[rbp]
	mov	QWORD PTR -24[rbp], rax
	call	_ZSt23__is_constant_evaluatedv
	test	al, al
	je	.L416
	mov	rax, QWORD PTR -16[rbp]
	mov	rcx, rax
	call	_ZdlPv
	jmp	.L417
.L416:
	mov	rcx, QWORD PTR -24[rbp]
	mov	rdx, QWORD PTR -16[rbp]
	mov	rax, QWORD PTR -8[rbp]
	mov	r8, rcx
	mov	rcx, rax
	call	_ZNSt15__new_allocatorIPNSt8__detail15_Hash_node_baseEE10deallocateEPS2_y
	nop
.L417:
	nop
	add	rsp, 64
	pop	rbp
	ret
	.seh_endproc
	.section	.text$_ZNK9__gnu_cxx16__aligned_bufferISt4pairIKjS1_IiPFi10CallParamsEEEE7_M_addrEv,"x"
	.linkonce discard
	.align 2
	.globl	_ZNK9__gnu_cxx16__aligned_bufferISt4pairIKjS1_IiPFi10CallParamsEEEE7_M_addrEv
	.def	_ZNK9__gnu_cxx16__aligned_bufferISt4pairIKjS1_IiPFi10CallParamsEEEE7_M_addrEv;	.scl	2;	.type	32;	.endef
	.seh_proc	_ZNK9__gnu_cxx16__aligned_bufferISt4pairIKjS1_IiPFi10CallParamsEEEE7_M_addrEv
_ZNK9__gnu_cxx16__aligned_bufferISt4pairIKjS1_IiPFi10CallParamsEEEE7_M_addrEv:
.LFB8179:
	push	rbp
	.seh_pushreg	rbp
	mov	rbp, rsp
	.seh_setframe	rbp, 0
	.seh_endprologue
	mov	QWORD PTR 16[rbp], rcx
	mov	rax, QWORD PTR 16[rbp]
	pop	rbp
	ret
	.seh_endproc
	.section	.text$_ZSt12__get_helperILy0EOjJEERT0_RSt11_Tuple_implIXT_EJS1_DpT1_EE,"x"
	.linkonce discard
	.globl	_ZSt12__get_helperILy0EOjJEERT0_RSt11_Tuple_implIXT_EJS1_DpT1_EE
	.def	_ZSt12__get_helperILy0EOjJEERT0_RSt11_Tuple_implIXT_EJS1_DpT1_EE;	.scl	2;	.type	32;	.endef
	.seh_proc	_ZSt12__get_helperILy0EOjJEERT0_RSt11_Tuple_implIXT_EJS1_DpT1_EE
_ZSt12__get_helperILy0EOjJEERT0_RSt11_Tuple_implIXT_EJS1_DpT1_EE:
.LFB8180:
	push	rbp
	.seh_pushreg	rbp
	mov	rbp, rsp
	.seh_setframe	rbp, 0
	sub	rsp, 32
	.seh_stackalloc	32
	.seh_endprologue
	mov	QWORD PTR 16[rbp], rcx
	mov	rax, QWORD PTR 16[rbp]
	mov	rcx, rax
	call	_ZNSt11_Tuple_implILy0EJOjEE7_M_headERS1_
	add	rsp, 32
	pop	rbp
	ret
	.seh_endproc
	.section	.text$_ZNSt15__new_allocatorIPNSt8__detail15_Hash_node_baseEE8allocateEyPKv,"x"
	.linkonce discard
	.align 2
	.globl	_ZNSt15__new_allocatorIPNSt8__detail15_Hash_node_baseEE8allocateEyPKv
	.def	_ZNSt15__new_allocatorIPNSt8__detail15_Hash_node_baseEE8allocateEyPKv;	.scl	2;	.type	32;	.endef
	.seh_proc	_ZNSt15__new_allocatorIPNSt8__detail15_Hash_node_baseEE8allocateEyPKv
_ZNSt15__new_allocatorIPNSt8__detail15_Hash_node_baseEE8allocateEyPKv:
.LFB8181:
	push	rbp
	.seh_pushreg	rbp
	mov	rbp, rsp
	.seh_setframe	rbp, 0
	sub	rsp, 32
	.seh_stackalloc	32
	.seh_endprologue
	mov	QWORD PTR 16[rbp], rcx
	mov	QWORD PTR 24[rbp], rdx
	mov	QWORD PTR 32[rbp], r8
	mov	rax, QWORD PTR 16[rbp]
	mov	rcx, rax
	call	_ZNKSt15__new_allocatorIPNSt8__detail15_Hash_node_baseEE11_M_max_sizeEv
	cmp	rax, QWORD PTR 24[rbp]
	setb	al
	movzx	eax, al
	test	eax, eax
	setne	al
	test	al, al
	je	.L423
	movabs	rax, 2305843009213693951
	cmp	rax, QWORD PTR 24[rbp]
	jnb	.L424
	call	_ZSt28__throw_bad_array_new_lengthv
.L424:
	call	_ZSt17__throw_bad_allocv
.L423:
	mov	rax, QWORD PTR 24[rbp]
	sal	rax, 3
	mov	rcx, rax
	call	_Znwy
	nop
	add	rsp, 32
	pop	rbp
	ret
	.seh_endproc
	.section	.text$_ZSt9addressofIPNSt8__detail15_Hash_node_baseEEPT_RS3_,"x"
	.linkonce discard
	.globl	_ZSt9addressofIPNSt8__detail15_Hash_node_baseEEPT_RS3_
	.def	_ZSt9addressofIPNSt8__detail15_Hash_node_baseEEPT_RS3_;	.scl	2;	.type	32;	.endef
	.seh_proc	_ZSt9addressofIPNSt8__detail15_Hash_node_baseEEPT_RS3_
_ZSt9addressofIPNSt8__detail15_Hash_node_baseEEPT_RS3_:
.LFB8182:
	push	rbp
	.seh_pushreg	rbp
	mov	rbp, rsp
	.seh_setframe	rbp, 0
	sub	rsp, 32
	.seh_stackalloc	32
	.seh_endprologue
	mov	QWORD PTR 16[rbp], rcx
	mov	rax, QWORD PTR 16[rbp]
	mov	rcx, rax
	call	_ZSt11__addressofIPNSt8__detail15_Hash_node_baseEEPT_RS3_
	add	rsp, 32
	pop	rbp
	ret
	.seh_endproc
	.section	.text$_ZNSt11_Tuple_implILy0EJOjEE7_M_headERS1_,"x"
	.linkonce discard
	.globl	_ZNSt11_Tuple_implILy0EJOjEE7_M_headERS1_
	.def	_ZNSt11_Tuple_implILy0EJOjEE7_M_headERS1_;	.scl	2;	.type	32;	.endef
	.seh_proc	_ZNSt11_Tuple_implILy0EJOjEE7_M_headERS1_
_ZNSt11_Tuple_implILy0EJOjEE7_M_headERS1_:
.LFB8184:
	push	rbp
	.seh_pushreg	rbp
	mov	rbp, rsp
	.seh_setframe	rbp, 0
	sub	rsp, 32
	.seh_stackalloc	32
	.seh_endprologue
	mov	QWORD PTR 16[rbp], rcx
	mov	rax, QWORD PTR 16[rbp]
	mov	rcx, rax
	call	_ZNSt10_Head_baseILy0EOjLb0EE7_M_headERS1_
	add	rsp, 32
	pop	rbp
	ret
	.seh_endproc
	.section	.text$_ZNKSt15__new_allocatorIPNSt8__detail15_Hash_node_baseEE11_M_max_sizeEv,"x"
	.linkonce discard
	.align 2
	.globl	_ZNKSt15__new_allocatorIPNSt8__detail15_Hash_node_baseEE11_M_max_sizeEv
	.def	_ZNKSt15__new_allocatorIPNSt8__detail15_Hash_node_baseEE11_M_max_sizeEv;	.scl	2;	.type	32;	.endef
	.seh_proc	_ZNKSt15__new_allocatorIPNSt8__detail15_Hash_node_baseEE11_M_max_sizeEv
_ZNKSt15__new_allocatorIPNSt8__detail15_Hash_node_baseEE11_M_max_sizeEv:
.LFB8185:
	push	rbp
	.seh_pushreg	rbp
	mov	rbp, rsp
	.seh_setframe	rbp, 0
	.seh_endprologue
	mov	QWORD PTR 16[rbp], rcx
	movabs	rax, 1152921504606846975
	pop	rbp
	ret
	.seh_endproc
	.section	.text$_ZSt11__addressofIPNSt8__detail15_Hash_node_baseEEPT_RS3_,"x"
	.linkonce discard
	.globl	_ZSt11__addressofIPNSt8__detail15_Hash_node_baseEEPT_RS3_
	.def	_ZSt11__addressofIPNSt8__detail15_Hash_node_baseEEPT_RS3_;	.scl	2;	.type	32;	.endef
	.seh_proc	_ZSt11__addressofIPNSt8__detail15_Hash_node_baseEEPT_RS3_
_ZSt11__addressofIPNSt8__detail15_Hash_node_baseEEPT_RS3_:
.LFB8186:
	push	rbp
	.seh_pushreg	rbp
	mov	rbp, rsp
	.seh_setframe	rbp, 0
	.seh_endprologue
	mov	QWORD PTR 16[rbp], rcx
	mov	rax, QWORD PTR 16[rbp]
	pop	rbp
	ret
	.seh_endproc
	.section	.text$_ZNSt15__new_allocatorIPNSt8__detail15_Hash_node_baseEE10deallocateEPS2_y,"x"
	.linkonce discard
	.align 2
	.globl	_ZNSt15__new_allocatorIPNSt8__detail15_Hash_node_baseEE10deallocateEPS2_y
	.def	_ZNSt15__new_allocatorIPNSt8__detail15_Hash_node_baseEE10deallocateEPS2_y;	.scl	2;	.type	32;	.endef
	.seh_proc	_ZNSt15__new_allocatorIPNSt8__detail15_Hash_node_baseEE10deallocateEPS2_y
_ZNSt15__new_allocatorIPNSt8__detail15_Hash_node_baseEE10deallocateEPS2_y:
.LFB8187:
	push	rbp
	.seh_pushreg	rbp
	mov	rbp, rsp
	.seh_setframe	rbp, 0
	sub	rsp, 32
	.seh_stackalloc	32
	.seh_endprologue
	mov	QWORD PTR 16[rbp], rcx
	mov	QWORD PTR 24[rbp], rdx
	mov	QWORD PTR 32[rbp], r8
	mov	rax, QWORD PTR 32[rbp]
	lea	rdx, 0[0+rax*8]
	mov	rax, QWORD PTR 24[rbp]
	mov	rcx, rax
	call	_ZdlPvy
	nop
	add	rsp, 32
	pop	rbp
	ret
	.seh_endproc
	.section	.text$_ZNSt10_Head_baseILy0EOjLb0EE7_M_headERS1_,"x"
	.linkonce discard
	.globl	_ZNSt10_Head_baseILy0EOjLb0EE7_M_headERS1_
	.def	_ZNSt10_Head_baseILy0EOjLb0EE7_M_headERS1_;	.scl	2;	.type	32;	.endef
	.seh_proc	_ZNSt10_Head_baseILy0EOjLb0EE7_M_headERS1_
_ZNSt10_Head_baseILy0EOjLb0EE7_M_headERS1_:
.LFB8188:
	push	rbp
	.seh_pushreg	rbp
	mov	rbp, rsp
	.seh_setframe	rbp, 0
	.seh_endprologue
	mov	QWORD PTR 16[rbp], rcx
	mov	rax, QWORD PTR 16[rbp]
	mov	rax, QWORD PTR [rax]
	pop	rbp
	ret
	.seh_endproc
	.ident	"GCC: (MinGW-W64 x86_64-msvcrt-posix-seh, built by Brecht Sanders) 12.2.0"
	.def	__mingw_vfprintf;	.scl	2;	.type	32;	.endef
	.def	memcpy;	.scl	2;	.type	32;	.endef
	.def	_Z7fnvhashPKcb;	.scl	2;	.type	32;	.endef
	.def	fopen;	.scl	2;	.type	32;	.endef
	.def	fseek;	.scl	2;	.type	32;	.endef
	.def	ftell;	.scl	2;	.type	32;	.endef
	.def	rewind;	.scl	2;	.type	32;	.endef
	.def	fread;	.scl	2;	.type	32;	.endef
	.def	_Unwind_Resume;	.scl	2;	.type	32;	.endef
	.def	_ZNKSt8__detail20_Prime_rehash_policy14_M_need_rehashEyyy;	.scl	2;	.type	32;	.endef
	.def	__cxa_begin_catch;	.scl	2;	.type	32;	.endef
	.def	__cxa_rethrow;	.scl	2;	.type	32;	.endef
	.def	__cxa_end_catch;	.scl	2;	.type	32;	.endef
	.def	_ZSt28__throw_bad_array_new_lengthv;	.scl	2;	.type	32;	.endef
	.def	_Znwy;	.scl	2;	.type	32;	.endef
	.def	_ZdlPv;	.scl	2;	.type	32;	.endef
	.def	_ZSt17__throw_bad_allocv;	.scl	2;	.type	32;	.endef
	.def	_ZdlPvy;	.scl	2;	.type	32;	.endef
	.def	memset;	.scl	2;	.type	32;	.endef
	.section	.rdata$.refptr.multicharMapping, "dr"
	.globl	.refptr.multicharMapping
	.linkonce	discard
.refptr.multicharMapping:
	.quad	multicharMapping
